S'3.2'
p1
.S'LALR'
p1
.S'\xa9_F\x80\x91\xec\xae`\xa2\x08bng\x90\x96\xa8'
p1
.(dp1
I0
(dp2
S'PAREN_L'
p3
I-14
sS'PIPE'
p4
I-14
sS'FRACTION'
p5
I-14
sS'BRACE_L'
p6
I-14
sS'INTEGER'
p7
I-14
sS'$end'
p8
I-14
ssI1
(dp9
g3
I3
sg4
I6
sg5
I9
sg6
I4
sg7
I13
sS'$end'
p10
I0
ssI2
(dp11
S'BRACE_R'
p12
I-1
sg3
I-1
sg4
I-1
sg5
I-1
sg6
I-1
sg7
I-1
sg8
I-1
ssI3
(dp13
S'INTEGER'
p14
I14
ssI4
(dp15
g12
I-5
sg3
I-5
sg7
I-5
sg5
I-5
sg6
I-5
ssI5
(dp16
g3
I-15
sg4
I-15
sg5
I-15
sg6
I-15
sg7
I-15
sg8
I-15
ssI6
(dp17
S'FRACTION'
p18
I16
ssI7
(dp19
g12
I-3
sg3
I-3
sg4
I-3
sg5
I-3
sg6
I-3
sg7
I-3
sg8
I-3
ssI8
(dp20
g12
I-4
sg3
I-4
sg4
I-4
sg5
I-4
sg6
I-4
sg7
I-4
sg8
I-4
ssI9
(dp21
g6
I4
ssI10
(dp22
g3
I-16
sg4
I-16
sg5
I-16
sg6
I-16
sg7
I-16
sg8
I-16
ssI11
(dp23
g12
I-10
sg3
I-10
sg4
I-10
sg5
I-10
sg6
I-10
sg7
I-10
sg8
I-10
ssI12
(dp24
g12
I-2
sg3
I-2
sg4
I-2
sg5
I-2
sg6
I-2
sg7
I-2
sg8
I-2
ssI13
(dp25
g12
I-9
sg3
I-9
sg4
I-9
sg5
I-9
sg6
I-9
sg7
I-9
sS'DOT'
p26
I-9
sg8
I-9
ssI14
(dp27
S'COMMA'
p28
I19
ssI15
(dp29
g12
I20
sg3
I3
sg7
I13
sg5
I9
sg6
I4
ssI16
(dp30
S'PIPE'
p31
I-5
sg7
I-5
sg3
I-5
sg5
I-5
sg6
I-5
ssI17
(dp32
g12
I-17
sg3
I-17
sg31
I-17
sg5
I-17
sg6
I-17
sg7
I-17
sg8
I-17
ssI18
(dp33
g12
I-11
sg3
I-11
sg4
I-11
sg5
I-11
sg6
I-11
sg7
I-11
sg26
I23
sg8
I-11
ssI19
(dp34
S'INTEGER'
p35
I24
ssI20
(dp36
g12
I-7
sg3
I-7
sg4
I-7
sg5
I-7
sg6
I-7
sg7
I-7
sg8
I-7
ssI21
(dp37
g12
I-6
sg3
I-6
sg31
I-6
sg5
I-6
sg6
I-6
sg7
I-6
ssI22
(dp38
g31
I25
sg7
I13
sg3
I3
sg5
I9
sg6
I4
ssI23
(dp39
g12
I-8
sg3
I-8
sg4
I-8
sg5
I-8
sg6
I-8
sg7
I-8
sg26
I-8
sg8
I-8
ssI24
(dp40
S'PAREN_R'
p41
I26
ssI25
(dp42
g3
I-13
sg4
I-13
sg5
I-13
sg6
I-13
sg7
I-13
sg8
I-13
ssI26
(dp43
g12
I-12
sg3
I-12
sg4
I-12
sg5
I-12
sg6
I-12
sg7
I-12
sg8
I-12
ss.(dp1
I0
(dp2
S'start'
p3
I1
ssI1
(dp4
S'leaf'
p5
I7
sS'fixed_duration_container'
p6
I12
sS'component'
p7
I5
sS'tuplet'
p8
I8
sS'measure'
p9
I10
sS'pair'
p10
I11
sS'container'
p11
I2
ssI2
(dp12
sI3
(dp13
sI4
(dp14
S'component_list'
p15
I15
ssI5
(dp16
sI6
(dp17
sI7
(dp18
sI8
(dp19
sI9
(dp20
S'container'
p21
I17
ssI10
(dp22
sI11
(dp23
sI12
(dp24
sI13
(dp25
S'dots'
p26
I18
ssI14
(dp27
sI15
(dp28
g11
I2
sS'component'
p29
I21
sg5
I7
sg8
I8
sg10
I11
sg6
I12
ssI16
(dp30
S'component_list'
p31
I22
ssI17
(dp32
sI18
(dp33
sI19
(dp34
sI20
(dp35
sI21
(dp36
sI22
(dp37
g11
I2
sg29
I21
sg5
I7
sg8
I8
sg10
I11
sg6
I12
ssI23
(dp38
sI24
(dp39
sI25
(dp40
sI26
(dp41
s.(lp1
(S"S' -> start"
p2
S"S'"
p3
I1
NNNtp4
a(S'component -> container'
p5
S'component'
p6
I1
S'p_component__container'
p7
S'/home/josiah/Documents/Projects/abjad/abjad/tools/rhythmtreetools/_TupletParser/_TupletParser.py'
p8
I61
tp9
a(S'component -> fixed_duration_container'
p10
S'component'
p11
I1
S'p_component__fixed_duration_container'
p12
S'/home/josiah/Documents/Projects/abjad/abjad/tools/rhythmtreetools/_TupletParser/_TupletParser.py'
p13
I65
tp14
a(S'component -> leaf'
p15
S'component'
p16
I1
S'p_component__leaf'
p17
S'/home/josiah/Documents/Projects/abjad/abjad/tools/rhythmtreetools/_TupletParser/_TupletParser.py'
p18
I69
tp19
a(S'component -> tuplet'
p20
S'component'
p21
I1
S'p_component__tuplet'
p22
S'/home/josiah/Documents/Projects/abjad/abjad/tools/rhythmtreetools/_TupletParser/_TupletParser.py'
p23
I73
tp24
a(S'component_list -> <empty>'
p25
S'component_list'
p26
I0
S'p_component_list__EMPTY'
p27
S'/home/josiah/Documents/Projects/abjad/abjad/tools/rhythmtreetools/_TupletParser/_TupletParser.py'
p28
I77
tp29
a(S'component_list -> component_list component'
p30
S'component_list'
p31
I2
S'p_component_list__component_list__component'
p32
S'/home/josiah/Documents/Projects/abjad/abjad/tools/rhythmtreetools/_TupletParser/_TupletParser.py'
p33
I81
tp34
a(S'container -> BRACE_L component_list BRACE_R'
p35
S'container'
p36
I3
S'p_container__BRACE_L__component_list__BRACE_R'
p37
S'/home/josiah/Documents/Projects/abjad/abjad/tools/rhythmtreetools/_TupletParser/_TupletParser.py'
p38
I85
tp39
a(S'dots -> dots DOT'
p40
S'dots'
p41
I2
S'p_dots__dots__DOT'
p42
S'/home/josiah/Documents/Projects/abjad/abjad/tools/rhythmtreetools/_TupletParser/_TupletParser.py'
p43
I91
tp44
a(S'dots -> <empty>'
p45
S'dots'
p46
I0
S'p_dots__EMPTY'
p47
S'/home/josiah/Documents/Projects/abjad/abjad/tools/rhythmtreetools/_TupletParser/_TupletParser.py'
p48
I95
tp49
a(S'fixed_duration_container -> pair'
p50
S'fixed_duration_container'
p51
I1
S'p_fixed_duration_container__pair'
p52
S'/home/josiah/Documents/Projects/abjad/abjad/tools/rhythmtreetools/_TupletParser/_TupletParser.py'
p53
I99
tp54
a(S'leaf -> INTEGER dots'
p55
S'leaf'
p56
I2
S'p_leaf__INTEGER'
p57
S'/home/josiah/Documents/Projects/abjad/abjad/tools/rhythmtreetools/_TupletParser/_TupletParser.py'
p58
I103
tp59
a(S'pair -> PAREN_L INTEGER COMMA INTEGER PAREN_R'
p60
S'pair'
p61
I5
S'p_pair__PAREN_L__INTEGER__COMMA__INTEGER__PAREN_R'
p62
S'/home/josiah/Documents/Projects/abjad/abjad/tools/rhythmtreetools/_TupletParser/_TupletParser.py'
p63
I111
tp64
a(S'measure -> PIPE FRACTION component_list PIPE'
p65
S'measure'
p66
I4
S'p_measure__PIPE__FRACTION__component_list__PIPE'
p67
S'/home/josiah/Documents/Projects/abjad/abjad/tools/rhythmtreetools/_TupletParser/_TupletParser.py'
p68
I115
tp69
a(S'start -> <empty>'
p70
S'start'
p71
I0
S'p_start__EMPTY'
p72
S'/home/josiah/Documents/Projects/abjad/abjad/tools/rhythmtreetools/_TupletParser/_TupletParser.py'
p73
I121
tp74
a(S'start -> start component'
p75
S'start'
p76
I2
S'p_start__start__component'
p77
S'/home/josiah/Documents/Projects/abjad/abjad/tools/rhythmtreetools/_TupletParser/_TupletParser.py'
p78
I125
tp79
a(S'start -> start measure'
p80
S'start'
p81
I2
S'p_start__start__measure'
p82
S'/home/josiah/Documents/Projects/abjad/abjad/tools/rhythmtreetools/_TupletParser/_TupletParser.py'
p83
I129
tp84
a(S'tuplet -> FRACTION container'
p85
S'tuplet'
p86
I2
S'p_tuplet__FRACTION__container'
p87
S'/home/josiah/Documents/Projects/abjad/abjad/tools/rhythmtreetools/_TupletParser/_TupletParser.py'
p88
I133
tp89
a.