S'3.2'
p1
.S'LALR'
p1
.S'*\xf2\xed\xde4\xc62z\xcfDd\xcb\x95\xfbz\xc7'
p1
.(dp1
I0
(dp2
S'PAREN_L'
p3
I-17
sS'PIPE'
p4
I-17
sS'FRACTION'
p5
I-17
sS'BRACE_L'
p6
I-17
sS'INTEGER'
p7
I-17
sS'$end'
p8
I-17
ssI1
(dp9
g3
I3
sg4
I6
sg5
I9
sg6
I4
sg7
I13
sS'$end'
p10
I0
ssI2
(dp11
S'BRACE_R'
p12
I-1
sg3
I-1
sg4
I-1
sg5
I-1
sg6
I-1
sg7
I-1
sg8
I-1
ssI3
(dp13
S'INTEGER'
p14
I14
ssI4
(dp15
g12
I-5
sg3
I-5
sg7
I-5
sg5
I-5
sg6
I-5
ssI5
(dp16
g3
I-18
sg4
I-18
sg5
I-18
sg6
I-18
sg7
I-18
sg8
I-18
ssI6
(dp17
S'FRACTION'
p18
I16
ssI7
(dp19
g12
I-3
sg3
I-3
sg4
I-3
sg5
I-3
sg6
I-3
sg7
I-3
sg8
I-3
ssI8
(dp20
g12
I-4
sg3
I-4
sg4
I-4
sg5
I-4
sg6
I-4
sg7
I-4
sg8
I-4
ssI9
(dp21
g6
I4
ssI10
(dp22
g3
I-19
sg4
I-19
sg5
I-19
sg6
I-19
sg7
I-19
sg8
I-19
ssI11
(dp23
g12
I-10
sg3
I-10
sg4
I-10
sg5
I-10
sg6
I-10
sg7
I-10
sg8
I-10
ssI12
(dp24
g12
I-2
sg3
I-2
sg4
I-2
sg5
I-2
sg6
I-2
sg7
I-2
sg8
I-2
ssI13
(dp25
g12
I-9
sg3
I-9
sS'TILDE'
p26
I-9
sg4
I-9
sg5
I-9
sg6
I-9
sg7
I-9
sS'DOT'
p27
I-9
sg8
I-9
ssI14
(dp28
S'COMMA'
p29
I19
ssI15
(dp30
g12
I20
sg3
I3
sg7
I13
sg5
I9
sg6
I4
ssI16
(dp31
S'PIPE'
p32
I-5
sg7
I-5
sg3
I-5
sg5
I-5
sg6
I-5
ssI17
(dp33
g12
I-21
sg3
I-21
sg32
I-21
sg5
I-21
sg6
I-21
sg7
I-21
sg8
I-21
ssI18
(dp34
g12
I-15
sg3
I-15
sg26
I-15
sg4
I-15
sg5
I-15
sg6
I-15
sg7
I-15
sg27
I24
sg8
I-15
ssI19
(dp35
S'INTEGER'
p36
I25
ssI20
(dp37
g12
I-7
sg3
I-7
sg4
I-7
sg5
I-7
sg6
I-7
sg7
I-7
sg8
I-7
ssI21
(dp38
g12
I-6
sg3
I-6
sg32
I-6
sg5
I-6
sg6
I-6
sg7
I-6
ssI22
(dp39
g32
I26
sg7
I13
sg3
I3
sg5
I9
sg6
I4
ssI23
(dp40
g12
I-11
sg3
I-11
sg26
I29
sg4
I-11
sg5
I-11
sg6
I-11
sg7
I-11
sg8
I-11
ssI24
(dp41
g12
I-8
sg3
I-8
sg26
I-8
sg4
I-8
sg5
I-8
sg6
I-8
sg7
I-8
sg27
I-8
sg8
I-8
ssI25
(dp42
S'PAREN_R'
p43
I30
ssI26
(dp44
g3
I-13
sg4
I-13
sg5
I-13
sg6
I-13
sg7
I-13
sg8
I-13
ssI27
(dp45
g12
I-14
sg3
I-14
sg26
I-14
sg4
I-14
sg5
I-14
sg6
I-14
sg7
I-14
sg8
I-14
ssI28
(dp46
g12
I-16
sg3
I-16
sg26
I-16
sg4
I-16
sg5
I-16
sg6
I-16
sg7
I-16
sg8
I-16
ssI29
(dp47
g12
I-20
sg3
I-20
sg26
I-20
sg4
I-20
sg5
I-20
sg6
I-20
sg7
I-20
sg8
I-20
ssI30
(dp48
g12
I-12
sg3
I-12
sg4
I-12
sg5
I-12
sg6
I-12
sg7
I-12
sg8
I-12
ss.(dp1
I0
(dp2
S'start'
p3
I1
ssI1
(dp4
S'leaf'
p5
I7
sS'fixed_duration_container'
p6
I12
sS'component'
p7
I5
sS'tuplet'
p8
I8
sS'measure'
p9
I10
sS'pair'
p10
I11
sS'container'
p11
I2
ssI2
(dp12
sI3
(dp13
sI4
(dp14
S'component_list'
p15
I15
ssI5
(dp16
sI6
(dp17
sI7
(dp18
sI8
(dp19
sI9
(dp20
S'container'
p21
I17
ssI10
(dp22
sI11
(dp23
sI12
(dp24
sI13
(dp25
S'dots'
p26
I18
ssI14
(dp27
sI15
(dp28
g11
I2
sS'component'
p29
I21
sg5
I7
sg8
I8
sg10
I11
sg6
I12
ssI16
(dp30
S'component_list'
p31
I22
ssI17
(dp32
sI18
(dp33
S'post_events'
p34
I23
ssI19
(dp35
sI20
(dp36
sI21
(dp37
sI22
(dp38
g11
I2
sg29
I21
sg5
I7
sg8
I8
sg10
I11
sg6
I12
ssI23
(dp39
S'tie'
p40
I27
sS'post_event'
p41
I28
ssI24
(dp42
sI25
(dp43
sI26
(dp44
sI27
(dp45
sI28
(dp46
sI29
(dp47
sI30
(dp48
s.(lp1
(S"S' -> start"
p2
S"S'"
p3
I1
NNNtp4
a(S'component -> container'
p5
S'component'
p6
I1
S'p_component__container'
p7
S'/home/josiah/Documents/Projects/abjad/abjad/tools/rhythmtreetools/_TupletParser/_TupletParser.py'
p8
I64
tp9
a(S'component -> fixed_duration_container'
p10
S'component'
p11
I1
S'p_component__fixed_duration_container'
p12
S'/home/josiah/Documents/Projects/abjad/abjad/tools/rhythmtreetools/_TupletParser/_TupletParser.py'
p13
I68
tp14
a(S'component -> leaf'
p15
S'component'
p16
I1
S'p_component__leaf'
p17
S'/home/josiah/Documents/Projects/abjad/abjad/tools/rhythmtreetools/_TupletParser/_TupletParser.py'
p18
I72
tp19
a(S'component -> tuplet'
p20
S'component'
p21
I1
S'p_component__tuplet'
p22
S'/home/josiah/Documents/Projects/abjad/abjad/tools/rhythmtreetools/_TupletParser/_TupletParser.py'
p23
I76
tp24
a(S'component_list -> <empty>'
p25
S'component_list'
p26
I0
S'p_component_list__EMPTY'
p27
S'/home/josiah/Documents/Projects/abjad/abjad/tools/rhythmtreetools/_TupletParser/_TupletParser.py'
p28
I80
tp29
a(S'component_list -> component_list component'
p30
S'component_list'
p31
I2
S'p_component_list__component_list__component'
p32
S'/home/josiah/Documents/Projects/abjad/abjad/tools/rhythmtreetools/_TupletParser/_TupletParser.py'
p33
I84
tp34
a(S'container -> BRACE_L component_list BRACE_R'
p35
S'container'
p36
I3
S'p_container__BRACE_L__component_list__BRACE_R'
p37
S'/home/josiah/Documents/Projects/abjad/abjad/tools/rhythmtreetools/_TupletParser/_TupletParser.py'
p38
I88
tp39
a(S'dots -> dots DOT'
p40
S'dots'
p41
I2
S'p_dots__dots__DOT'
p42
S'/home/josiah/Documents/Projects/abjad/abjad/tools/rhythmtreetools/_TupletParser/_TupletParser.py'
p43
I94
tp44
a(S'dots -> <empty>'
p45
S'dots'
p46
I0
S'p_dots__EMPTY'
p47
S'/home/josiah/Documents/Projects/abjad/abjad/tools/rhythmtreetools/_TupletParser/_TupletParser.py'
p48
I98
tp49
a(S'fixed_duration_container -> pair'
p50
S'fixed_duration_container'
p51
I1
S'p_fixed_duration_container__pair'
p52
S'/home/josiah/Documents/Projects/abjad/abjad/tools/rhythmtreetools/_TupletParser/_TupletParser.py'
p53
I102
tp54
a(S'leaf -> INTEGER dots post_events'
p55
S'leaf'
p56
I3
S'p_leaf__INTEGER__dots__post_events'
p57
S'/home/josiah/Documents/Projects/abjad/abjad/tools/rhythmtreetools/_TupletParser/_TupletParser.py'
p58
I106
tp59
a(S'pair -> PAREN_L INTEGER COMMA INTEGER PAREN_R'
p60
S'pair'
p61
I5
S'p_pair__PAREN_L__INTEGER__COMMA__INTEGER__PAREN_R'
p62
S'/home/josiah/Documents/Projects/abjad/abjad/tools/rhythmtreetools/_TupletParser/_TupletParser.py'
p63
I117
tp64
a(S'measure -> PIPE FRACTION component_list PIPE'
p65
S'measure'
p66
I4
S'p_measure__PIPE__FRACTION__component_list__PIPE'
p67
S'/home/josiah/Documents/Projects/abjad/abjad/tools/rhythmtreetools/_TupletParser/_TupletParser.py'
p68
I121
tp69
a(S'post_event -> tie'
p70
S'post_event'
p71
I1
S'p_post_event__tie'
p72
S'/home/josiah/Documents/Projects/abjad/abjad/tools/rhythmtreetools/_TupletParser/_TupletParser.py'
p73
I127
tp74
a(S'post_events -> <empty>'
p75
S'post_events'
p76
I0
S'p_post_events__EMPTY'
p77
S'/home/josiah/Documents/Projects/abjad/abjad/tools/rhythmtreetools/_TupletParser/_TupletParser.py'
p78
I131
tp79
a(S'post_events -> post_events post_event'
p80
S'post_events'
p81
I2
S'p_post_events__post_events__post_event'
p82
S'/home/josiah/Documents/Projects/abjad/abjad/tools/rhythmtreetools/_TupletParser/_TupletParser.py'
p83
I135
tp84
a(S'start -> <empty>'
p85
S'start'
p86
I0
S'p_start__EMPTY'
p87
S'/home/josiah/Documents/Projects/abjad/abjad/tools/rhythmtreetools/_TupletParser/_TupletParser.py'
p88
I139
tp89
a(S'start -> start component'
p90
S'start'
p91
I2
S'p_start__start__component'
p92
S'/home/josiah/Documents/Projects/abjad/abjad/tools/rhythmtreetools/_TupletParser/_TupletParser.py'
p93
I143
tp94
a(S'start -> start measure'
p95
S'start'
p96
I2
S'p_start__start__measure'
p97
S'/home/josiah/Documents/Projects/abjad/abjad/tools/rhythmtreetools/_TupletParser/_TupletParser.py'
p98
I147
tp99
a(S'tie -> TILDE'
p100
S'tie'
p101
I1
S'p_tie__TILDE'
p102
S'/home/josiah/Documents/Projects/abjad/abjad/tools/rhythmtreetools/_TupletParser/_TupletParser.py'
p103
I151
tp104
a(S'tuplet -> FRACTION container'
p105
S'tuplet'
p106
I2
S'p_tuplet__FRACTION__container'
p107
S'/home/josiah/Documents/Projects/abjad/abjad/tools/rhythmtreetools/_TupletParser/_TupletParser.py'
p108
I155
tp109
a.