S'3.2'
p1
.S'LALR'
p1
.S'6\xf4\xe5\x05\xcf\x9d\xb4UK\xac)A\x81\xcd\x88\x1d'
p1
.(dp1
I0
(dp2
S'INTEGER'
p3
I-5
sS'PAREN_L'
p4
I-5
sS'$end'
p5
I-5
sS'FRACTION'
p6
I-5
sS'BRACE_L'
p7
I-5
ssI1
(dp8
g3
I11
sg4
I4
sg7
I5
sg6
I3
sS'$end'
p9
I0
ssI2
(dp10
S'BRACE_R'
p11
I-1
sg4
I-1
sg6
I-1
sg7
I-1
sg3
I-1
sg5
I-1
ssI3
(dp12
g7
I5
ssI4
(dp13
S'INTEGER'
p14
I13
ssI5
(dp15
g11
I-5
sg4
I-5
sg3
I-5
sg6
I-5
sg7
I-5
ssI6
(dp16
g11
I-6
sg4
I-6
sg6
I-6
sg7
I-6
sg3
I-6
sg5
I-6
ssI7
(dp17
g11
I-4
sg4
I-4
sg6
I-4
sg7
I-4
sg3
I-4
sg5
I-4
ssI8
(dp18
g11
I-2
sg4
I-2
sg6
I-2
sg7
I-2
sg3
I-2
sg5
I-2
ssI9
(dp19
g11
I-8
sg4
I-8
sg6
I-8
sg7
I-8
sg3
I-8
sg5
I-8
ssI10
(dp20
g11
I-3
sg4
I-3
sg6
I-3
sg7
I-3
sg3
I-3
sg5
I-3
ssI11
(dp21
g11
I-9
sg4
I-9
sg6
I-9
sg7
I-9
sg3
I-9
sg5
I-9
ssI12
(dp22
g11
I-10
sg4
I-10
sg6
I-10
sg7
I-10
sg3
I-10
sg5
I-10
ssI13
(dp23
S'COMMA'
p24
I15
ssI14
(dp25
g11
I16
sg4
I4
sg3
I11
sg6
I3
sg7
I5
ssI15
(dp26
S'INTEGER'
p27
I17
ssI16
(dp28
g11
I-7
sg4
I-7
sg6
I-7
sg7
I-7
sg3
I-7
sg5
I-7
ssI17
(dp29
S'PAREN_R'
p30
I18
ssI18
(dp31
g11
I-11
sg4
I-11
sg6
I-11
sg7
I-11
sg3
I-11
sg5
I-11
ss.(dp1
I0
(dp2
S'component_list'
p3
I1
ssI1
(dp4
S'container'
p5
I2
sS'component'
p6
I6
sS'leaf'
p7
I10
sS'tuplet'
p8
I7
sS'pair'
p9
I9
sS'fixed_duration_container'
p10
I8
ssI2
(dp11
sI3
(dp12
S'container'
p13
I12
ssI4
(dp14
sI5
(dp15
S'component_list'
p16
I14
ssI6
(dp17
sI7
(dp18
sI8
(dp19
sI9
(dp20
sI10
(dp21
sI11
(dp22
sI12
(dp23
sI13
(dp24
sI14
(dp25
g5
I2
sg6
I6
sg7
I10
sg8
I7
sg9
I9
sg10
I8
ssI15
(dp26
sI16
(dp27
sI17
(dp28
sI18
(dp29
s.(lp1
(S"S' -> component_list"
p2
S"S'"
p3
I1
NNNtp4
a(S'component -> container'
p5
S'component'
p6
I1
S'p_component__container'
p7
S'/home/josiah/Documents/Projects/abjad/abjad/tools/rhythmtreetools/_TupletParser/_TupletParser.py'
p8
I56
tp9
a(S'component -> fixed_duration_container'
p10
S'component'
p11
I1
S'p_component__fixed_duration_container'
p12
S'/home/josiah/Documents/Projects/abjad/abjad/tools/rhythmtreetools/_TupletParser/_TupletParser.py'
p13
I60
tp14
a(S'component -> leaf'
p15
S'component'
p16
I1
S'p_component__leaf'
p17
S'/home/josiah/Documents/Projects/abjad/abjad/tools/rhythmtreetools/_TupletParser/_TupletParser.py'
p18
I64
tp19
a(S'component -> tuplet'
p20
S'component'
p21
I1
S'p_component__tuplet'
p22
S'/home/josiah/Documents/Projects/abjad/abjad/tools/rhythmtreetools/_TupletParser/_TupletParser.py'
p23
I68
tp24
a(S'component_list -> <empty>'
p25
S'component_list'
p26
I0
S'p_component_list__EMPTY'
p27
S'/home/josiah/Documents/Projects/abjad/abjad/tools/rhythmtreetools/_TupletParser/_TupletParser.py'
p28
I72
tp29
a(S'component_list -> component_list component'
p30
S'component_list'
p31
I2
S'p_component_list__component_list__component'
p32
S'/home/josiah/Documents/Projects/abjad/abjad/tools/rhythmtreetools/_TupletParser/_TupletParser.py'
p33
I76
tp34
a(S'container -> BRACE_L component_list BRACE_R'
p35
S'container'
p36
I3
S'p_container__BRACE_L__component_list__BRACE_R'
p37
S'/home/josiah/Documents/Projects/abjad/abjad/tools/rhythmtreetools/_TupletParser/_TupletParser.py'
p38
I80
tp39
a(S'fixed_duration_container -> pair'
p40
S'fixed_duration_container'
p41
I1
S'p_fixed_duration_container__pair'
p42
S'/home/josiah/Documents/Projects/abjad/abjad/tools/rhythmtreetools/_TupletParser/_TupletParser.py'
p43
I86
tp44
a(S'leaf -> INTEGER'
p45
S'leaf'
p46
I1
S'p_leaf__INTEGER'
p47
S'/home/josiah/Documents/Projects/abjad/abjad/tools/rhythmtreetools/_TupletParser/_TupletParser.py'
p48
I90
tp49
a(S'tuplet -> FRACTION container'
p50
S'tuplet'
p51
I2
S'p_tuplet__FRACTION_container'
p52
S'/home/josiah/Documents/Projects/abjad/abjad/tools/rhythmtreetools/_TupletParser/_TupletParser.py'
p53
I97
tp54
a(S'pair -> PAREN_L INTEGER COMMA INTEGER PAREN_R'
p55
S'pair'
p56
I5
S'p_pair__PAREN_L__INTEGER__COMMA__INTEGER__PAREN_R'
p57
S'/home/josiah/Documents/Projects/abjad/abjad/tools/rhythmtreetools/_TupletParser/_TupletParser.py'
p58
I101
tp59
a.