S'3.2'
p1
.S'LALR'
p1
.S'L\xae\x86\x01\xe3\x8a_\x98\xd7\x84p\xacK\xfc\xd5v'
p1
.(dp1
I0
(dp2
S'INTEGER'
p3
I-4
sS'PAREN_L'
p4
I-4
sS'FRACTION'
p5
I-4
sS'$end'
p6
I-4
ssI1
(dp7
g3
I7
sg4
I4
sg5
I3
sS'$end'
p8
I0
ssI2
(dp9
g3
I-2
sg4
I-2
sS'BRACE_R'
p10
I-2
sg5
I-2
sg6
I-2
ssI3
(dp11
S'BRACE_L'
p12
I11
ssI4
(dp13
S'INTEGER'
p14
I12
ssI5
(dp15
g3
I-5
sg4
I-5
sg10
I-5
sg5
I-5
sg6
I-5
ssI6
(dp16
g3
I-3
sg4
I-3
sg10
I-3
sg5
I-3
sg6
I-3
ssI7
(dp17
g10
I-8
sg4
I-8
sg6
I-8
sg5
I-8
sg3
I-8
ssI8
(dp18
g3
I-7
sg4
I-7
sg10
I-7
sg5
I-7
sg6
I-7
ssI9
(dp19
g3
I-1
sg4
I-1
sg10
I-1
sg5
I-1
sg6
I-1
ssI10
(dp20
g10
I-9
sg4
I-9
sg6
I-9
sg5
I-9
sg3
I-9
ssI11
(dp21
g10
I-4
sg4
I-4
sg5
I-4
sg3
I-4
ssI12
(dp22
S'COMMA'
p23
I14
ssI13
(dp24
g10
I15
sg4
I4
sg5
I3
sg3
I7
ssI14
(dp25
S'INTEGER'
p26
I16
ssI15
(dp27
g3
I-6
sg4
I-6
sg10
I-6
sg5
I-6
sg6
I-6
ssI16
(dp28
S'PAREN_R'
p29
I17
ssI17
(dp30
g3
I-10
sg4
I-10
sg10
I-10
sg5
I-10
sg6
I-10
ss.(dp1
I0
(dp2
S'component_list'
p3
I1
ssI1
(dp4
S'pair'
p5
I8
sS'component'
p6
I5
sS'fixed_duration_container'
p7
I9
sS'leaf'
p8
I2
sS'tuplet'
p9
I6
ssI2
(dp10
sI3
(dp11
S'container'
p12
I10
ssI4
(dp13
sI5
(dp14
sI6
(dp15
sI7
(dp16
sI8
(dp17
sI9
(dp18
sI10
(dp19
sI11
(dp20
S'component_list'
p21
I13
ssI12
(dp22
sI13
(dp23
g5
I8
sg6
I5
sg7
I9
sg8
I2
sg9
I6
ssI14
(dp24
sI15
(dp25
sI16
(dp26
sI17
(dp27
s.(lp1
(S"S' -> component_list"
p2
S"S'"
p3
I1
NNNtp4
a(S'component -> fixed_duration_container'
p5
S'component'
p6
I1
S'p_component__fixed_duration_container'
p7
S'/home/josiah/Documents/Projects/abjad/abjad/tools/rhythmtreetools/_TupletParser/_TupletParser.py'
p8
I56
tp9
a(S'component -> leaf'
p10
S'component'
p11
I1
S'p_component__leaf'
p12
S'/home/josiah/Documents/Projects/abjad/abjad/tools/rhythmtreetools/_TupletParser/_TupletParser.py'
p13
I60
tp14
a(S'component -> tuplet'
p15
S'component'
p16
I1
S'p_component__tuplet'
p17
S'/home/josiah/Documents/Projects/abjad/abjad/tools/rhythmtreetools/_TupletParser/_TupletParser.py'
p18
I64
tp19
a(S'component_list -> <empty>'
p20
S'component_list'
p21
I0
S'p_component_list__EMPTY'
p22
S'/home/josiah/Documents/Projects/abjad/abjad/tools/rhythmtreetools/_TupletParser/_TupletParser.py'
p23
I68
tp24
a(S'component_list -> component_list component'
p25
S'component_list'
p26
I2
S'p_component_list__component_list__component'
p27
S'/home/josiah/Documents/Projects/abjad/abjad/tools/rhythmtreetools/_TupletParser/_TupletParser.py'
p28
I72
tp29
a(S'container -> BRACE_L component_list BRACE_R'
p30
S'container'
p31
I3
S'p_container__BRACE_L__component_list__BRACE_R'
p32
S'/home/josiah/Documents/Projects/abjad/abjad/tools/rhythmtreetools/_TupletParser/_TupletParser.py'
p33
I76
tp34
a(S'fixed_duration_container -> pair'
p35
S'fixed_duration_container'
p36
I1
S'p_fixed_duration_container__pair'
p37
S'/home/josiah/Documents/Projects/abjad/abjad/tools/rhythmtreetools/_TupletParser/_TupletParser.py'
p38
I82
tp39
a(S'leaf -> INTEGER'
p40
S'leaf'
p41
I1
S'p_leaf__INTEGER'
p42
S'/home/josiah/Documents/Projects/abjad/abjad/tools/rhythmtreetools/_TupletParser/_TupletParser.py'
p43
I86
tp44
a(S'tuplet -> FRACTION container'
p45
S'tuplet'
p46
I2
S'p_tuplet__FRACTION_container'
p47
S'/home/josiah/Documents/Projects/abjad/abjad/tools/rhythmtreetools/_TupletParser/_TupletParser.py'
p48
I93
tp49
a(S'pair -> PAREN_L INTEGER COMMA INTEGER PAREN_R'
p50
S'pair'
p51
I5
S'p_pair__PAREN_L__INTEGER__COMMA__INTEGER__PAREN_R'
p52
S'/home/josiah/Documents/Projects/abjad/abjad/tools/rhythmtreetools/_TupletParser/_TupletParser.py'
p53
I97
tp54
a.