S'3.2'
p1
.S'LALR'
p1
.S'\xe1d_k\x8c&\x1a\xaa\x13\n\xbb\x8a\x00*\xd5\xe7'
p1
.(dp1
I0
(dp2
S'PAREN_L'
p3
I-9
sS'$end'
p4
I-9
ssI1
(dp5
g3
I2
sS'$end'
p6
I0
ssI2
(dp7
S'INTEGER'
p8
I9
sg3
I2
sS'FLOAT'
p9
I7
sS'STRING'
p10
I5
sS'KEYWORD'
p11
I6
ssI3
(dp12
g3
I-10
sg4
I-10
ssI4
(dp13
g10
I-2
sg11
I-2
sg3
I-2
sg9
I-2
sS'PAREN_R'
p14
I-2
sg8
I-2
ssI5
(dp15
g10
I-7
sg11
I-7
sg3
I-7
sg9
I-7
sg14
I-7
sg8
I-7
ssI6
(dp16
g10
I-6
sg11
I-6
sg3
I-6
sg9
I-6
sg14
I-6
sg8
I-6
ssI7
(dp17
g10
I-4
sg11
I-4
sg3
I-4
sg9
I-4
sg14
I-4
sg8
I-4
ssI8
(dp18
g10
I-8
sg11
I-8
sg3
I-8
sg9
I-8
sg14
I-8
sg8
I-8
ssI9
(dp19
g10
I-5
sg11
I-5
sg3
I-5
sg9
I-5
sg14
I-5
sg8
I-5
ssI10
(dp20
g10
I5
sg11
I6
sg3
I2
sg9
I7
sg14
I12
sg8
I9
ssI11
(dp21
g10
I-3
sg11
I-3
sg3
I-3
sg9
I-3
sg14
I-3
sg8
I-3
ssI12
(dp22
g10
I-1
sg11
I-1
sg3
I-1
sg9
I-1
sg14
I-1
sg8
I-1
sg4
I-1
ss.(dp1
I0
(dp2
S'toplevel'
p3
I1
ssI1
(dp4
S'list'
p5
I3
ssI2
(dp6
S'list_body_element'
p7
I4
sS'list'
p8
I8
sS'list_body'
p9
I10
ssI3
(dp10
sI4
(dp11
sI5
(dp12
sI6
(dp13
sI7
(dp14
sI8
(dp15
sI9
(dp16
sI10
(dp17
S'list_body_element'
p18
I11
sg8
I8
ssI11
(dp19
sI12
(dp20
s.(lp1
(S"S' -> toplevel"
p2
S"S'"
p3
I1
NNNtp4
a(S'list -> PAREN_L list_body PAREN_R'
p5
S'list'
p6
I3
S'p_list__PAREN_L__list_body__PAREN_R'
p7
S'/Users/josiah/Documents/Projects/abjad/trunk/abjad/tools/rhythmtreetools/ENPParser/ENPParser.py'
p8
I99
tp9
a(S'list_body -> list_body_element'
p10
S'list_body'
p11
I1
S'p_list_body__list_body_element'
p12
S'/Users/josiah/Documents/Projects/abjad/trunk/abjad/tools/rhythmtreetools/ENPParser/ENPParser.py'
p13
I103
tp14
a(S'list_body -> list_body list_body_element'
p15
S'list_body'
p16
I2
S'p_list_body__list_body__list_body_element'
p17
S'/Users/josiah/Documents/Projects/abjad/trunk/abjad/tools/rhythmtreetools/ENPParser/ENPParser.py'
p18
I107
tp19
a(S'list_body_element -> FLOAT'
p20
S'list_body_element'
p21
I1
S'p_list_body_element__FLOAT'
p22
S'/Users/josiah/Documents/Projects/abjad/trunk/abjad/tools/rhythmtreetools/ENPParser/ENPParser.py'
p23
I111
tp24
a(S'list_body_element -> INTEGER'
p25
S'list_body_element'
p26
I1
S'p_list_body_element__INTEGER'
p27
S'/Users/josiah/Documents/Projects/abjad/trunk/abjad/tools/rhythmtreetools/ENPParser/ENPParser.py'
p28
I115
tp29
a(S'list_body_element -> KEYWORD'
p30
S'list_body_element'
p31
I1
S'p_list_body_element__KEYWORD'
p32
S'/Users/josiah/Documents/Projects/abjad/trunk/abjad/tools/rhythmtreetools/ENPParser/ENPParser.py'
p33
I119
tp34
a(S'list_body_element -> STRING'
p35
S'list_body_element'
p36
I1
S'p_list_body_element__STRING'
p37
S'/Users/josiah/Documents/Projects/abjad/trunk/abjad/tools/rhythmtreetools/ENPParser/ENPParser.py'
p38
I123
tp39
a(S'list_body_element -> list'
p40
S'list_body_element'
p41
I1
S'p_list_body_element__list'
p42
S'/Users/josiah/Documents/Projects/abjad/trunk/abjad/tools/rhythmtreetools/ENPParser/ENPParser.py'
p43
I127
tp44
a(S'toplevel -> <empty>'
p45
S'toplevel'
p46
I0
S'p_toplevel__EMPTY'
p47
S'/Users/josiah/Documents/Projects/abjad/trunk/abjad/tools/rhythmtreetools/ENPParser/ENPParser.py'
p48
I131
tp49
a(S'toplevel -> toplevel list'
p50
S'toplevel'
p51
I2
S'p_toplevel__list'
p52
S'/Users/josiah/Documents/Projects/abjad/trunk/abjad/tools/rhythmtreetools/ENPParser/ENPParser.py'
p53
I135
tp54
a.