S'3.2'
p1
.S'LALR'
p1
.S'vC\x05\xebm\x9d\xac\xa9\xa1{\x15\x9d\x99\xb3\x8c\x85'
p1
.(dp1
I0
(dp2
S'STRING'
p3
I-2
sS"'"
I-2
sS'DECIMAL'
p4
I-2
sS'BOOLEAN'
p5
I-2
sS'INTEGER'
p6
I-2
sS'$end'
p7
I-2
ssI1
(dp8
g3
I10
sS"'"
I5
sg4
I6
sg5
I11
sg6
I9
sg7
I-1
ssI2
(dp9
S'$end'
p10
I0
ssI3
(dp11
g3
I-6
sS"'"
I-6
sg4
I-6
sg5
I-6
sg6
I-6
sg7
I-6
ssI4
(dp12
g3
I-3
sS"'"
I-3
sg4
I-3
sg5
I-3
sg6
I-3
sg7
I-3
ssI5
(dp13
S'L_PAREN'
p14
I14
sS'HASH'
p15
I19
sg3
I10
sg4
I6
sg5
I11
sg6
I9
ssI6
(dp16
g14
I-16
sg15
I-16
sg3
I-16
sS"'"
I-16
sg4
I-16
sS'.'
I-16
sS'R_PAREN'
p17
I-16
sg5
I-16
sg6
I-16
sg7
I-16
ssI7
(dp18
g14
I-8
sg15
I-8
sg3
I-8
sS"'"
I-8
sg4
I-8
sS'.'
I-8
sS'R_PAREN'
p19
I-8
sg5
I-8
sg6
I-8
sg7
I-8
ssI8
(dp20
g14
I-7
sg15
I-7
sg3
I-7
sS"'"
I-7
sg4
I-7
sS'.'
I-7
sg19
I-7
sg5
I-7
sg6
I-7
sg7
I-7
ssI9
(dp21
g14
I-17
sg15
I-17
sg3
I-17
sS"'"
I-17
sg4
I-17
sS'.'
I-17
sg17
I-17
sg5
I-17
sg6
I-17
sg7
I-17
ssI10
(dp22
g14
I-18
sg15
I-18
sg3
I-18
sS"'"
I-18
sg4
I-18
sS'.'
I-18
sS'R_PAREN'
p23
I-18
sg5
I-18
sg6
I-18
sg7
I-18
ssI11
(dp24
g14
I-15
sg15
I-15
sg3
I-15
sS"'"
I-15
sg4
I-15
sS'.'
I-15
sg19
I-15
sg5
I-15
sg6
I-15
sg7
I-15
ssI12
(dp25
g3
I-4
sS"'"
I-4
sg4
I-4
sg5
I-4
sg6
I-4
sg7
I-4
ssI13
(dp26
g14
I-9
sg15
I-9
sg3
I-9
sS"'"
I-9
sg4
I-9
sS'.'
I-9
sg19
I-9
sg5
I-9
sg6
I-9
sg7
I-9
ssI14
(dp27
g14
I-13
sg15
I-13
sg3
I-13
sg4
I-13
sg23
I-13
sg5
I-13
sg6
I-13
ssI15
(dp28
g14
I-12
sg15
I-12
sg3
I-12
sS"'"
I-12
sg4
I-12
sS'.'
I-12
sg19
I-12
sg5
I-12
sg6
I-12
sg7
I-12
ssI16
(dp29
g14
I-10
sg15
I-10
sg3
I-10
sS"'"
I-10
sg4
I-10
sS'.'
I-10
sg19
I-10
sg5
I-10
sg6
I-10
sg7
I-10
ssI17
(dp30
g3
I-5
sS"'"
I-5
sg4
I-5
sg5
I-5
sg6
I-5
sg7
I-5
ssI18
(dp31
g14
I-11
sg15
I-11
sg3
I-11
sS"'"
I-11
sg4
I-11
sS'.'
I-11
sg19
I-11
sg5
I-11
sg6
I-11
sg7
I-11
ssI19
(dp32
S'L_PAREN'
p33
I21
ssI20
(dp34
g14
I14
sg15
I19
sg3
I10
sg4
I6
sg23
I23
sg5
I11
sg6
I9
ssI21
(dp35
g14
I-13
sg15
I-13
sg3
I-13
sg4
I-13
sg17
I-13
sg5
I-13
sg6
I-13
ssI22
(dp36
g14
I-14
sg15
I-14
sg3
I-14
sg4
I-14
sS'.'
I25
sg23
I-14
sg5
I-14
sg6
I-14
ssI23
(dp37
g14
I-20
sg15
I-20
sg3
I-20
sS"'"
I-20
sg4
I-20
sS'.'
I-20
sg23
I-20
sg5
I-20
sg6
I-20
sg7
I-20
ssI24
(dp38
g14
I14
sg15
I19
sg3
I10
sg4
I6
sg17
I27
sg5
I11
sg6
I9
ssI25
(dp39
g14
I14
sg15
I19
sg3
I10
sg4
I6
sg5
I11
sg6
I9
ssI26
(dp40
g14
I-14
sg15
I-14
sg3
I-14
sg4
I-14
sg17
I-14
sg5
I-14
sg6
I-14
ssI27
(dp41
g14
I-19
sg15
I-19
sg3
I-19
sS"'"
I-19
sg4
I-19
sS'.'
I-19
sg23
I-19
sg5
I-19
sg6
I-19
sg7
I-19
ssI28
(dp42
g19
I29
ssI29
(dp43
g14
I-21
sg15
I-21
sg3
I-21
sS"'"
I-21
sg4
I-21
sS'.'
I-21
sg23
I-21
sg5
I-21
sg6
I-21
sg7
I-21
ss.(dp1
I0
(dp2
S'forms'
p3
I1
sS'program'
p4
I2
ssI1
(dp5
S'constant'
p6
I3
sS'string'
p7
I13
sS'form'
p8
I4
sS'number'
p9
I7
sS'boolean'
p10
I8
sS'expression'
p11
I12
ssI2
(dp12
sI3
(dp13
sI4
(dp14
sI5
(dp15
S'constant'
p16
I16
sg7
I13
sg10
I8
sS'list'
p17
I18
sS'datum'
p18
I17
sg9
I7
sS'vector'
p19
I15
ssI6
(dp20
sI7
(dp21
sI8
(dp22
sI9
(dp23
sI10
(dp24
sI11
(dp25
sI12
(dp26
sI13
(dp27
sI14
(dp28
S'data'
p29
I20
ssI15
(dp30
sI16
(dp31
sI17
(dp32
sI18
(dp33
sI19
(dp34
sI20
(dp35
g16
I16
sg7
I13
sg10
I8
sS'datum'
p36
I22
sg17
I18
sg9
I7
sg19
I15
ssI21
(dp37
S'data'
p38
I24
ssI22
(dp39
sI23
(dp40
sI24
(dp41
g16
I16
sg7
I13
sg10
I8
sS'datum'
p42
I26
sg17
I18
sg9
I7
sg19
I15
ssI25
(dp43
g16
I16
sg7
I13
sg10
I8
sg36
I28
sg17
I18
sg9
I7
sg19
I15
ssI26
(dp44
sI27
(dp45
sI28
(dp46
sI29
(dp47
s.(lp1
(S"S' -> program"
p2
S"S'"
p3
I1
NNNtp4
a(S'program -> forms'
p5
S'program'
p6
I1
S'p_program__forms'
p7
S'/home/josiah/Documents/Projects/abjad/abjad/tools/lilypondparsertools/_SchemeParser/_SchemeParser.py'
p8
I224
tp9
a(S'forms -> <empty>'
p10
S'forms'
p11
I0
S'p_forms__EMPTY'
p12
S'/home/josiah/Documents/Projects/abjad/abjad/tools/lilypondparsertools/_SchemeParser/_SchemeParser.py'
p13
I228
tp14
a(S'forms -> forms form'
p15
S'forms'
p16
I2
S'p_forms__forms__form'
p17
S'/home/josiah/Documents/Projects/abjad/abjad/tools/lilypondparsertools/_SchemeParser/_SchemeParser.py'
p18
I232
tp19
a(S'form -> expression'
p20
S'form'
p21
I1
S'p_form__expression'
p22
S'/home/josiah/Documents/Projects/abjad/abjad/tools/lilypondparsertools/_SchemeParser/_SchemeParser.py'
p23
I240
tp24
a(S"expression -> ' datum"
p25
S'expression'
p26
I2
S'p_expression__QUOTE__datum'
p27
S'/home/josiah/Documents/Projects/abjad/abjad/tools/lilypondparsertools/_SchemeParser/_SchemeParser.py'
p28
I297
tp29
a(S'expression -> constant'
p30
S'expression'
p31
I1
S'p_expression__constant'
p32
S'/home/josiah/Documents/Projects/abjad/abjad/tools/lilypondparsertools/_SchemeParser/_SchemeParser.py'
p33
I306
tp34
a(S'constant -> boolean'
p35
S'constant'
p36
I1
S'p_constant__boolean'
p37
S'/home/josiah/Documents/Projects/abjad/abjad/tools/lilypondparsertools/_SchemeParser/_SchemeParser.py'
p38
I314
tp39
a(S'constant -> number'
p40
S'constant'
p41
I1
S'p_constant__number'
p42
S'/home/josiah/Documents/Projects/abjad/abjad/tools/lilypondparsertools/_SchemeParser/_SchemeParser.py'
p43
I318
tp44
a(S'constant -> string'
p45
S'constant'
p46
I1
S'p_constant__string'
p47
S'/home/josiah/Documents/Projects/abjad/abjad/tools/lilypondparsertools/_SchemeParser/_SchemeParser.py'
p48
I322
tp49
a(S'datum -> constant'
p50
S'datum'
p51
I1
S'p_datum__constant'
p52
S'/home/josiah/Documents/Projects/abjad/abjad/tools/lilypondparsertools/_SchemeParser/_SchemeParser.py'
p53
I358
tp54
a(S'datum -> list'
p55
S'datum'
p56
I1
S'p_datum__list'
p57
S'/home/josiah/Documents/Projects/abjad/abjad/tools/lilypondparsertools/_SchemeParser/_SchemeParser.py'
p58
I374
tp59
a(S'datum -> vector'
p60
S'datum'
p61
I1
S'p_datum__vector'
p62
S'/home/josiah/Documents/Projects/abjad/abjad/tools/lilypondparsertools/_SchemeParser/_SchemeParser.py'
p63
I378
tp64
a(S'data -> <empty>'
p65
S'data'
p66
I0
S'p_data__EMPTY'
p67
S'/home/josiah/Documents/Projects/abjad/abjad/tools/lilypondparsertools/_SchemeParser/_SchemeParser.py'
p68
I382
tp69
a(S'data -> data datum'
p70
S'data'
p71
I2
S'p_data__data__datum'
p72
S'/home/josiah/Documents/Projects/abjad/abjad/tools/lilypondparsertools/_SchemeParser/_SchemeParser.py'
p73
I386
tp74
a(S'boolean -> BOOLEAN'
p75
S'boolean'
p76
I1
S'p_boolean__BOOLEAN'
p77
S'/home/josiah/Documents/Projects/abjad/abjad/tools/lilypondparsertools/_SchemeParser/_SchemeParser.py'
p78
I394
tp79
a(S'number -> DECIMAL'
p80
S'number'
p81
I1
S'p_number__DECIMAL'
p82
S'/home/josiah/Documents/Projects/abjad/abjad/tools/lilypondparsertools/_SchemeParser/_SchemeParser.py'
p83
I402
tp84
a(S'number -> INTEGER'
p85
S'number'
p86
I1
S'p_number__INTEGER'
p87
S'/home/josiah/Documents/Projects/abjad/abjad/tools/lilypondparsertools/_SchemeParser/_SchemeParser.py'
p88
I406
tp89
a(S'string -> STRING'
p90
S'string'
p91
I1
S'p_string__STRING'
p92
S'/home/josiah/Documents/Projects/abjad/abjad/tools/lilypondparsertools/_SchemeParser/_SchemeParser.py'
p93
I418
tp94
a(S'vector -> HASH L_PAREN data R_PAREN'
p95
S'vector'
p96
I4
S'p_vector__HASH__L_PAREN__data__R_PAREN'
p97
S'/home/josiah/Documents/Projects/abjad/abjad/tools/lilypondparsertools/_SchemeParser/_SchemeParser.py'
p98
I434
tp99
a(S'list -> L_PAREN data R_PAREN'
p100
S'list'
p101
I3
S'p_list__L_PAREN__data__R_PAREN'
p102
S'/home/josiah/Documents/Projects/abjad/abjad/tools/lilypondparsertools/_SchemeParser/_SchemeParser.py'
p103
I442
tp104
a(S'list -> L_PAREN data datum . datum R_PAREN'
p105
S'list'
p106
I6
S'p_list__L_PAREN__data__PERIOD__datum'
p107
S'/home/josiah/Documents/Projects/abjad/abjad/tools/lilypondparsertools/_SchemeParser/_SchemeParser.py'
p108
I446
tp109
a.