S'3.2'
p1
.S'LALR'
p1
.S'8%\xeb\xa5*\xa7#\x94\xda\xbbC~I\r\x03O'
p1
.(dp1
I0
(dp2
S'INTEGER'
p3
I-2
sS'DECIMAL'
p4
I-2
sS'BOOLEAN'
p5
I-2
sS'STRING'
p6
I-2
sS'$end'
p7
I-2
ssI1
(dp8
g3
I9
sg4
I6
sg5
I10
sg6
I12
sg7
I-1
ssI2
(dp9
S'$end'
p10
I0
ssI3
(dp11
g3
I-5
sg4
I-5
sg5
I-5
sg6
I-5
sg7
I-5
ssI4
(dp12
g3
I-8
sg4
I-8
sg5
I-8
sg6
I-8
sg7
I-8
ssI5
(dp13
g3
I-3
sg4
I-3
sg5
I-3
sg6
I-3
sg7
I-3
ssI6
(dp14
g3
I-13
sg4
I-13
sg5
I-13
sg6
I-13
sg7
I-13
ssI7
(dp15
g3
I-7
sg4
I-7
sg5
I-7
sg6
I-7
sg7
I-7
ssI8
(dp16
g3
I-6
sg4
I-6
sg5
I-6
sg6
I-6
sg7
I-6
ssI9
(dp17
g3
I-14
sg4
I-14
sg5
I-14
sg6
I-14
sg7
I-14
ssI10
(dp18
g3
I-12
sg4
I-12
sg5
I-12
sg6
I-12
sg7
I-12
ssI11
(dp19
g3
I-4
sg4
I-4
sg5
I-4
sg6
I-4
sg7
I-4
ssI12
(dp20
g3
I-15
sg4
I-15
sg5
I-15
sg6
I-15
sg7
I-15
ss.(dp1
I0
(dp2
S'forms'
p3
I1
sS'program'
p4
I2
ssI1
(dp5
S'constant'
p6
I3
sS'string'
p7
I4
sS'form'
p8
I5
sS'number'
p9
I7
sS'boolean'
p10
I8
sS'expression'
p11
I11
ssI2
(dp12
sI3
(dp13
sI4
(dp14
sI5
(dp15
sI6
(dp16
sI7
(dp17
sI8
(dp18
sI9
(dp19
sI10
(dp20
sI11
(dp21
sI12
(dp22
s.(lp1
(S"S' -> program"
p2
S"S'"
p3
I1
NNNtp4
a(S'program -> forms'
p5
S'program'
p6
I1
S'p_program__forms'
p7
S'/home/josiah/Documents/Projects/abjad/abjad/tools/lilypondparsertools/_SchemeParser/_SchemeParser.py'
p8
I194
tp9
a(S'forms -> <empty>'
p10
S'forms'
p11
I0
S'p_forms__EMPTY'
p12
S'/home/josiah/Documents/Projects/abjad/abjad/tools/lilypondparsertools/_SchemeParser/_SchemeParser.py'
p13
I198
tp14
a(S'forms -> forms form'
p15
S'forms'
p16
I2
S'p_forms__forms__form'
p17
S'/home/josiah/Documents/Projects/abjad/abjad/tools/lilypondparsertools/_SchemeParser/_SchemeParser.py'
p18
I202
tp19
a(S'form -> expression'
p20
S'form'
p21
I1
S'p_form__expression'
p22
S'/home/josiah/Documents/Projects/abjad/abjad/tools/lilypondparsertools/_SchemeParser/_SchemeParser.py'
p23
I210
tp24
a(S'expression -> constant'
p25
S'expression'
p26
I1
S'p_expression__constant'
p27
S'/home/josiah/Documents/Projects/abjad/abjad/tools/lilypondparsertools/_SchemeParser/_SchemeParser.py'
p28
I265
tp29
a(S'constant -> boolean'
p30
S'constant'
p31
I1
S'p_constant__boolean'
p32
S'/home/josiah/Documents/Projects/abjad/abjad/tools/lilypondparsertools/_SchemeParser/_SchemeParser.py'
p33
I273
tp34
a(S'constant -> number'
p35
S'constant'
p36
I1
S'p_constant__number'
p37
S'/home/josiah/Documents/Projects/abjad/abjad/tools/lilypondparsertools/_SchemeParser/_SchemeParser.py'
p38
I277
tp39
a(S'constant -> string'
p40
S'constant'
p41
I1
S'p_constant__string'
p42
S'/home/josiah/Documents/Projects/abjad/abjad/tools/lilypondparsertools/_SchemeParser/_SchemeParser.py'
p43
I281
tp44
a(S'datum -> boolean'
p45
S'datum'
p46
I1
S'p_datum__boolean'
p47
S'/home/josiah/Documents/Projects/abjad/abjad/tools/lilypondparsertools/_SchemeParser/_SchemeParser.py'
p48
I317
tp49
a(S'datum -> number'
p50
S'datum'
p51
I1
S'p_datum__number'
p52
S'/home/josiah/Documents/Projects/abjad/abjad/tools/lilypondparsertools/_SchemeParser/_SchemeParser.py'
p53
I321
tp54
a(S'datum -> string'
p55
S'datum'
p56
I1
S'p_datum__string'
p57
S'/home/josiah/Documents/Projects/abjad/abjad/tools/lilypondparsertools/_SchemeParser/_SchemeParser.py'
p58
I325
tp59
a(S'boolean -> BOOLEAN'
p60
S'boolean'
p61
I1
S'p_boolean__BOOLEAN'
p62
S'/home/josiah/Documents/Projects/abjad/abjad/tools/lilypondparsertools/_SchemeParser/_SchemeParser.py'
p63
I333
tp64
a(S'number -> DECIMAL'
p65
S'number'
p66
I1
S'p_number__DECIMAL'
p67
S'/home/josiah/Documents/Projects/abjad/abjad/tools/lilypondparsertools/_SchemeParser/_SchemeParser.py'
p68
I341
tp69
a(S'number -> INTEGER'
p70
S'number'
p71
I1
S'p_number__INTEGER'
p72
S'/home/josiah/Documents/Projects/abjad/abjad/tools/lilypondparsertools/_SchemeParser/_SchemeParser.py'
p73
I345
tp74
a(S'string -> STRING'
p75
S'string'
p76
I1
S'p_string__STRING'
p77
S'/home/josiah/Documents/Projects/abjad/abjad/tools/lilypondparsertools/_SchemeParser/_SchemeParser.py'
p78
I357
tp79
a.