S'3.2'
p1
.S'LALR'
p1
.S'^+\xcc\xdd\xc0\x05\xde\xcf\xf5D\x93\t\x15\xefF/'
p1
.(dp1
I0
(dp2
S'ELLIPSIS'
p3
I2
ssI1
(dp4
S'$end'
p5
I0
ssI2
(dp6
S'$end'
p7
I-1
ss.(dp1
I0
(dp2
S'start'
p3
I1
ssI1
(dp4
sI2
(dp5
s.(lp1
(S"S' -> start"
p2
S"S'"
p3
I1
NNNtp4
a(S'start -> ELLIPSIS'
p5
S'start'
p6
I1
S'p_start__ELLIPSIS'
p7
S'/home/josiah/Documents/Projects/abjad/abjad/tools/lilypondparsertools/_SchemeParser/_SchemeParser.py'
p8
I188
tp9
a.