S'3.2'
p1
.S'LALR'
p1
.S'"\x9c\x1b\x81K\x07\x89S\xee\xcb8\xf1\xc5Mp\t'
p1
.(dp1
I0
(dp2
S'STRING'
p3
I-2
sS'QUOTE'
p4
I-2
sS'DECIMAL'
p5
I-2
sS'BOOLEAN'
p6
I-2
sS'INTEGER'
p7
I-2
sS'IDENTIFIER'
p8
I-2
sS'$end'
p9
I-2
ssI1
(dp10
g3
I15
sg4
I7
sg5
I8
sg6
I3
sg7
I12
sg8
I13
sg9
I-1
ssI2
(dp11
S'$end'
p12
I0
ssI3
(dp13
S'L_PAREN'
p14
I-18
sS'HASH'
p15
I-18
sg3
I-18
sg4
I-18
sg5
I-18
sS'PERIOD'
p16
I-18
sS'R_PAREN'
p17
I-18
sg6
I-18
sg7
I-18
sg8
I-18
sg9
I-18
ssI4
(dp18
g3
I-8
sg4
I-8
sg5
I-8
sg6
I-8
sg7
I-8
sg8
I-8
sg9
I-8
ssI5
(dp19
g14
I-11
sg15
I-11
sg3
I-11
sg4
I-11
sg5
I-11
sg16
I-11
sS'R_PAREN'
p20
I-11
sg6
I-11
sg7
I-11
sS'IDENTIFIER'
p21
I-11
sg9
I-11
ssI6
(dp22
g3
I-3
sg4
I-3
sg5
I-3
sg6
I-3
sg7
I-3
sg8
I-3
sg9
I-3
ssI7
(dp23
g14
I16
sg15
I22
sg3
I15
sg5
I8
sg6
I3
sg7
I12
sg21
I23
ssI8
(dp24
g14
I-19
sg15
I-19
sg3
I-19
sg4
I-19
sg5
I-19
sg16
I-19
sS'R_PAREN'
p25
I-19
sg6
I-19
sg7
I-19
sg21
I-19
sg9
I-19
ssI9
(dp26
g14
I-10
sg15
I-10
sg3
I-10
sg4
I-10
sg5
I-10
sg16
I-10
sg20
I-10
sg6
I-10
sg7
I-10
sg21
I-10
sg9
I-10
ssI10
(dp27
g14
I-9
sg15
I-9
sg3
I-9
sg4
I-9
sg5
I-9
sg16
I-9
sg20
I-9
sg6
I-9
sg7
I-9
sg21
I-9
sg9
I-9
ssI11
(dp28
g3
I-6
sg4
I-6
sg5
I-6
sg6
I-6
sg7
I-6
sg8
I-6
sg9
I-6
ssI12
(dp29
g14
I-20
sg15
I-20
sg3
I-20
sg4
I-20
sg5
I-20
sg16
I-20
sg25
I-20
sg6
I-20
sg7
I-20
sg21
I-20
sg9
I-20
ssI13
(dp30
g3
I-5
sg4
I-5
sg5
I-5
sg6
I-5
sg7
I-5
sg8
I-5
sg9
I-5
ssI14
(dp31
g3
I-4
sg4
I-4
sg5
I-4
sg6
I-4
sg7
I-4
sg8
I-4
sg9
I-4
ssI15
(dp32
g14
I-21
sg15
I-21
sg3
I-21
sg4
I-21
sg5
I-21
sg16
I-21
sg17
I-21
sg6
I-21
sg7
I-21
sg8
I-21
sg9
I-21
ssI16
(dp33
g14
I-16
sg15
I-16
sg3
I-16
sg5
I-16
sg25
I-16
sg6
I-16
sg7
I-16
sg21
I-16
ssI17
(dp34
g14
I-12
sg15
I-12
sg3
I-12
sg4
I-12
sg5
I-12
sg16
I-12
sg20
I-12
sg6
I-12
sg7
I-12
sg8
I-12
sg9
I-12
ssI18
(dp35
g14
I-13
sg15
I-13
sg3
I-13
sg4
I-13
sg5
I-13
sg16
I-13
sg20
I-13
sg6
I-13
sg7
I-13
sg8
I-13
sg9
I-13
ssI19
(dp36
g3
I-7
sg4
I-7
sg5
I-7
sg6
I-7
sg7
I-7
sg8
I-7
sg9
I-7
ssI20
(dp37
g14
I-14
sg15
I-14
sg3
I-14
sg4
I-14
sg5
I-14
sg16
I-14
sg20
I-14
sg6
I-14
sg7
I-14
sg8
I-14
sg9
I-14
ssI21
(dp38
g14
I-15
sg15
I-15
sg3
I-15
sg4
I-15
sg5
I-15
sg16
I-15
sg20
I-15
sg6
I-15
sg7
I-15
sg8
I-15
sg9
I-15
ssI22
(dp39
S'L_PAREN'
p40
I25
ssI23
(dp41
g14
I-22
sg15
I-22
sg3
I-22
sg4
I-22
sg5
I-22
sg16
I-22
sg20
I-22
sg6
I-22
sg7
I-22
sg21
I-22
sg9
I-22
ssI24
(dp42
g14
I16
sg15
I22
sg3
I15
sg5
I8
sg25
I27
sg6
I3
sg7
I12
sg21
I23
ssI25
(dp43
g14
I-16
sg15
I-16
sg3
I-16
sg5
I-16
sg20
I-16
sg6
I-16
sg7
I-16
sg21
I-16
ssI26
(dp44
g14
I-17
sg15
I-17
sg3
I-17
sg5
I-17
sg16
I29
sg25
I-17
sg6
I-17
sg7
I-17
sg21
I-17
ssI27
(dp45
g14
I-24
sg15
I-24
sg3
I-24
sg4
I-24
sg5
I-24
sg16
I-24
sg25
I-24
sg6
I-24
sg7
I-24
sg21
I-24
sg9
I-24
ssI28
(dp46
g14
I16
sg15
I22
sg3
I15
sg5
I8
sg20
I31
sg6
I3
sg7
I12
sg21
I23
ssI29
(dp47
g14
I16
sg15
I22
sg3
I15
sg5
I8
sg6
I3
sg7
I12
sg21
I23
ssI30
(dp48
g14
I-17
sg15
I-17
sg3
I-17
sg5
I-17
sg20
I-17
sg6
I-17
sg7
I-17
sg21
I-17
ssI31
(dp49
g14
I-23
sg15
I-23
sg3
I-23
sg4
I-23
sg5
I-23
sg16
I-23
sg17
I-23
sg6
I-23
sg7
I-23
sg21
I-23
sg9
I-23
ssI32
(dp50
g17
I33
ssI33
(dp51
g14
I-25
sg15
I-25
sg3
I-25
sg4
I-25
sg5
I-25
sg16
I-25
sg25
I-25
sg6
I-25
sg7
I-25
sg21
I-25
sg9
I-25
ss.(dp1
I0
(dp2
S'forms'
p3
I1
sS'program'
p4
I2
ssI1
(dp5
S'constant'
p6
I4
sS'string'
p7
I5
sS'form'
p8
I6
sS'number'
p9
I9
sS'boolean'
p10
I10
sS'variable'
p11
I11
sS'expression'
p12
I14
ssI2
(dp13
sI3
(dp14
sI4
(dp15
sI5
(dp16
sI6
(dp17
sI7
(dp18
S'constant'
p19
I17
sg7
I5
sg10
I10
sS'datum'
p20
I19
sS'symbol'
p21
I18
sS'list'
p22
I20
sg9
I9
sS'vector'
p23
I21
ssI8
(dp24
sI9
(dp25
sI10
(dp26
sI11
(dp27
sI12
(dp28
sI13
(dp29
sI14
(dp30
sI15
(dp31
sI16
(dp32
S'data'
p33
I24
ssI17
(dp34
sI18
(dp35
sI19
(dp36
sI20
(dp37
sI21
(dp38
sI22
(dp39
sI23
(dp40
sI24
(dp41
g23
I21
sg19
I17
sg7
I5
sS'datum'
p42
I26
sg21
I18
sg22
I20
sg9
I9
sg10
I10
ssI25
(dp43
S'data'
p44
I28
ssI26
(dp45
sI27
(dp46
sI28
(dp47
g23
I21
sg19
I17
sg7
I5
sS'datum'
p48
I30
sg21
I18
sg22
I20
sg9
I9
sg10
I10
ssI29
(dp49
g23
I21
sg19
I17
sg7
I5
sg42
I32
sg21
I18
sg22
I20
sg9
I9
sg10
I10
ssI30
(dp50
sI31
(dp51
sI32
(dp52
sI33
(dp53
s.(lp1
(S"S' -> program"
p2
S"S'"
p3
I1
NNNtp4
a(S'program -> forms'
p5
S'program'
p6
I1
S'p_program__forms'
p7
S'/home/josiah/Documents/Projects/abjad/abjad/tools/lilypondparsertools/_SchemeParser/_SchemeParser.py'
p8
I291
tp9
a(S'forms -> <empty>'
p10
S'forms'
p11
I0
S'p_forms__EMPTY'
p12
S'/home/josiah/Documents/Projects/abjad/abjad/tools/lilypondparsertools/_SchemeParser/_SchemeParser.py'
p13
I296
tp14
a(S'forms -> forms form'
p15
S'forms'
p16
I2
S'p_forms__forms__form'
p17
S'/home/josiah/Documents/Projects/abjad/abjad/tools/lilypondparsertools/_SchemeParser/_SchemeParser.py'
p18
I300
tp19
a(S'form -> expression'
p20
S'form'
p21
I1
S'p_form__expression'
p22
S'/home/josiah/Documents/Projects/abjad/abjad/tools/lilypondparsertools/_SchemeParser/_SchemeParser.py'
p23
I309
tp24
a(S'variable -> IDENTIFIER'
p25
S'variable'
p26
I1
S'p_variable__IDENTIFIER'
p27
S'/home/josiah/Documents/Projects/abjad/abjad/tools/lilypondparsertools/_SchemeParser/_SchemeParser.py'
p28
I340
tp29
a(S'expression -> variable'
p30
S'expression'
p31
I1
S'p_expression__variable'
p32
S'/home/josiah/Documents/Projects/abjad/abjad/tools/lilypondparsertools/_SchemeParser/_SchemeParser.py'
p33
I374
tp34
a(S'expression -> QUOTE datum'
p35
S'expression'
p36
I2
S'p_expression__QUOTE__datum'
p37
S'/home/josiah/Documents/Projects/abjad/abjad/tools/lilypondparsertools/_SchemeParser/_SchemeParser.py'
p38
I378
tp39
a(S'expression -> constant'
p40
S'expression'
p41
I1
S'p_expression__constant'
p42
S'/home/josiah/Documents/Projects/abjad/abjad/tools/lilypondparsertools/_SchemeParser/_SchemeParser.py'
p43
I391
tp44
a(S'constant -> boolean'
p45
S'constant'
p46
I1
S'p_constant__boolean'
p47
S'/home/josiah/Documents/Projects/abjad/abjad/tools/lilypondparsertools/_SchemeParser/_SchemeParser.py'
p48
I400
tp49
a(S'constant -> number'
p50
S'constant'
p51
I1
S'p_constant__number'
p52
S'/home/josiah/Documents/Projects/abjad/abjad/tools/lilypondparsertools/_SchemeParser/_SchemeParser.py'
p53
I409
tp54
a(S'constant -> string'
p55
S'constant'
p56
I1
S'p_constant__string'
p57
S'/home/josiah/Documents/Projects/abjad/abjad/tools/lilypondparsertools/_SchemeParser/_SchemeParser.py'
p58
I418
tp59
a(S'datum -> constant'
p60
S'datum'
p61
I1
S'p_datum__constant'
p62
S'/home/josiah/Documents/Projects/abjad/abjad/tools/lilypondparsertools/_SchemeParser/_SchemeParser.py'
p63
I459
tp64
a(S'datum -> symbol'
p65
S'datum'
p66
I1
S'p_datum__symbol'
p67
S'/home/josiah/Documents/Projects/abjad/abjad/tools/lilypondparsertools/_SchemeParser/_SchemeParser.py'
p68
I464
tp69
a(S'datum -> list'
p70
S'datum'
p71
I1
S'p_datum__list'
p72
S'/home/josiah/Documents/Projects/abjad/abjad/tools/lilypondparsertools/_SchemeParser/_SchemeParser.py'
p73
I481
tp74
a(S'datum -> vector'
p75
S'datum'
p76
I1
S'p_datum__vector'
p77
S'/home/josiah/Documents/Projects/abjad/abjad/tools/lilypondparsertools/_SchemeParser/_SchemeParser.py'
p78
I486
tp79
a(S'data -> <empty>'
p80
S'data'
p81
I0
S'p_data__EMPTY'
p82
S'/home/josiah/Documents/Projects/abjad/abjad/tools/lilypondparsertools/_SchemeParser/_SchemeParser.py'
p83
I491
tp84
a(S'data -> data datum'
p85
S'data'
p86
I2
S'p_data__data__datum'
p87
S'/home/josiah/Documents/Projects/abjad/abjad/tools/lilypondparsertools/_SchemeParser/_SchemeParser.py'
p88
I495
tp89
a(S'boolean -> BOOLEAN'
p90
S'boolean'
p91
I1
S'p_boolean__BOOLEAN'
p92
S'/home/josiah/Documents/Projects/abjad/abjad/tools/lilypondparsertools/_SchemeParser/_SchemeParser.py'
p93
I504
tp94
a(S'number -> DECIMAL'
p95
S'number'
p96
I1
S'p_number__DECIMAL'
p97
S'/home/josiah/Documents/Projects/abjad/abjad/tools/lilypondparsertools/_SchemeParser/_SchemeParser.py'
p98
I513
tp99
a(S'number -> INTEGER'
p100
S'number'
p101
I1
S'p_number__INTEGER'
p102
S'/home/josiah/Documents/Projects/abjad/abjad/tools/lilypondparsertools/_SchemeParser/_SchemeParser.py'
p103
I518
tp104
a(S'string -> STRING'
p105
S'string'
p106
I1
S'p_string__STRING'
p107
S'/home/josiah/Documents/Projects/abjad/abjad/tools/lilypondparsertools/_SchemeParser/_SchemeParser.py'
p108
I531
tp109
a(S'symbol -> IDENTIFIER'
p110
S'symbol'
p111
I1
S'p_symbol__IDENTIFIER'
p112
S'/home/josiah/Documents/Projects/abjad/abjad/tools/lilypondparsertools/_SchemeParser/_SchemeParser.py'
p113
I544
tp114
a(S'vector -> HASH L_PAREN data R_PAREN'
p115
S'vector'
p116
I4
S'p_vector__HASH__L_PAREN__data__R_PAREN'
p117
S'/home/josiah/Documents/Projects/abjad/abjad/tools/lilypondparsertools/_SchemeParser/_SchemeParser.py'
p118
I553
tp119
a(S'list -> L_PAREN data R_PAREN'
p120
S'list'
p121
I3
S'p_list__L_PAREN__data__R_PAREN'
p122
S'/home/josiah/Documents/Projects/abjad/abjad/tools/lilypondparsertools/_SchemeParser/_SchemeParser.py'
p123
I563
tp124
a(S'list -> L_PAREN data datum PERIOD datum R_PAREN'
p125
S'list'
p126
I6
S'p_list__L_PAREN__data__datum__PERIOD__datum__R_PAREN'
p127
S'/home/josiah/Documents/Projects/abjad/abjad/tools/lilypondparsertools/_SchemeParser/_SchemeParser.py'
p128
I569
tp129
a.