S'3.2'
p1
.S'LALR'
p1
.S'z\xa0\r\xd1\xeel\x88\xf4rI\xbf3\x8d\x0e\x83\x8b'
p1
.(dp1
I0
(dp2
S"'"
I-2
sS'$end'
p3
I-2
ssI1
(dp4
S"'"
I4
sg3
I-1
ssI2
(dp5
S'$end'
p6
I0
ssI3
(dp7
S"'"
I-4
sg3
I-4
ssI4
(dp8
S'L_PAREN'
p9
I6
sS'HASH'
p10
I8
sS'STRING'
p11
I17
sS'DECIMAL'
p12
I11
sS'BOOLEAN'
p13
I16
sS'INTEGER'
p14
I15
ssI5
(dp15
S"'"
I-3
sg3
I-3
ssI6
(dp16
g9
I6
sg10
I8
sg11
I17
sg12
I11
sS'R_PAREN'
p17
I-11
sg13
I16
sg14
I15
ssI7
(dp18
g9
I-10
sg10
I-10
sg11
I-10
sS"'"
I-10
sg12
I-10
sS'.'
I-10
sS'R_PAREN'
p19
I-10
sg13
I-10
sg14
I-10
sg3
I-10
ssI8
(dp20
S'L_PAREN'
p21
I20
ssI9
(dp22
g9
I-8
sg10
I-8
sg11
I-8
sS"'"
I-8
sg12
I-8
sS'.'
I-8
sg19
I-8
sg13
I-8
sg14
I-8
sg3
I-8
ssI10
(dp23
S"'"
I-5
sg3
I-5
ssI11
(dp24
g9
I-14
sg10
I-14
sg11
I-14
sS"'"
I-14
sg12
I-14
sS'.'
I-14
sS'R_PAREN'
p25
I-14
sg13
I-14
sg14
I-14
sg3
I-14
ssI12
(dp26
g9
I-9
sg10
I-9
sg11
I-9
sS"'"
I-9
sg12
I-9
sS'.'
I-9
sg19
I-9
sg13
I-9
sg14
I-9
sg3
I-9
ssI13
(dp27
g9
I-7
sg10
I-7
sg11
I-7
sS"'"
I-7
sg12
I-7
sS'.'
I-7
sg19
I-7
sg13
I-7
sg14
I-7
sg3
I-7
ssI14
(dp28
g9
I-6
sg10
I-6
sg11
I-6
sS"'"
I-6
sg12
I-6
sS'.'
I-6
sg19
I-6
sg13
I-6
sg14
I-6
sg3
I-6
ssI15
(dp29
g9
I-15
sg10
I-15
sg11
I-15
sS"'"
I-15
sg12
I-15
sS'.'
I-15
sg25
I-15
sg13
I-15
sg14
I-15
sg3
I-15
ssI16
(dp30
g9
I-13
sg10
I-13
sg11
I-13
sS"'"
I-13
sg12
I-13
sS'.'
I-13
sg17
I-13
sg13
I-13
sg14
I-13
sg3
I-13
ssI17
(dp31
g9
I-16
sg10
I-16
sg11
I-16
sS"'"
I-16
sg12
I-16
sS'.'
I-16
sg17
I-16
sg13
I-16
sg14
I-16
sg3
I-16
ssI18
(dp32
g9
I-11
sg10
I-11
sg11
I-11
sg12
I-11
sS'.'
I-11
sg13
I-11
sg14
I-11
ssI19
(dp33
g9
I6
sg10
I8
sg11
I17
sg12
I11
sg17
I23
sg13
I16
sg14
I15
ssI20
(dp34
g9
I-11
sg10
I-11
sg11
I-11
sg12
I-11
sg25
I-11
sg13
I-11
sg14
I-11
ssI21
(dp35
g9
I6
sg10
I8
sg11
I17
sg12
I11
sS'.'
I25
sg13
I16
sg14
I15
ssI22
(dp36
g9
I-12
sg10
I-12
sg11
I-12
sg12
I-12
sS'.'
I-12
sg17
I-12
sg13
I-12
sg14
I-12
ssI23
(dp37
g9
I-18
sg10
I-18
sg11
I-18
sS"'"
I-18
sg12
I-18
sS'.'
I-18
sg25
I-18
sg13
I-18
sg14
I-18
sg3
I-18
ssI24
(dp38
g9
I6
sg10
I8
sg11
I17
sg12
I11
sg25
I26
sg13
I16
sg14
I15
ssI25
(dp39
g9
I6
sg10
I8
sg11
I17
sg12
I11
sg13
I16
sg14
I15
ssI26
(dp40
g9
I-17
sg10
I-17
sg11
I-17
sS"'"
I-17
sg12
I-17
sS'.'
I-17
sg19
I-17
sg13
I-17
sg14
I-17
sg3
I-17
ssI27
(dp41
g19
I28
ssI28
(dp42
g9
I-19
sg10
I-19
sg11
I-19
sS"'"
I-19
sg12
I-19
sS'.'
I-19
sg25
I-19
sg13
I-19
sg14
I-19
sg3
I-19
ss.(dp1
I0
(dp2
S'forms'
p3
I1
sS'program'
p4
I2
ssI1
(dp5
S'expression'
p6
I3
sS'form'
p7
I5
ssI2
(dp8
sI3
(dp9
sI4
(dp10
S'string'
p11
I9
sS'boolean'
p12
I14
sS'datum'
p13
I10
sS'list'
p14
I12
sS'number'
p15
I13
sS'vector'
p16
I7
ssI5
(dp17
sI6
(dp18
g16
I7
sg11
I9
sg14
I12
sS'datum'
p19
I18
sg15
I13
sg12
I14
sS'data'
p20
I19
ssI7
(dp21
sI8
(dp22
sI9
(dp23
sI10
(dp24
sI11
(dp25
sI12
(dp26
sI13
(dp27
sI14
(dp28
sI15
(dp29
sI16
(dp30
sI17
(dp31
sI18
(dp32
S'data'
p33
I21
ssI19
(dp34
g16
I7
sg11
I9
sg14
I12
sS'datum'
p35
I22
sg15
I13
sg12
I14
ssI20
(dp36
S'data'
p37
I24
ssI21
(dp38
g16
I7
sg11
I9
sg19
I22
sg14
I12
sg15
I13
sg12
I14
ssI22
(dp39
sI23
(dp40
sI24
(dp41
g16
I7
sg11
I9
sg14
I12
sg35
I22
sg15
I13
sg12
I14
ssI25
(dp42
g16
I7
sg11
I9
sg19
I27
sg14
I12
sg15
I13
sg12
I14
ssI26
(dp43
sI27
(dp44
sI28
(dp45
s.(lp1
(S"S' -> program"
p2
S"S'"
p3
I1
NNNtp4
a(S'program -> forms'
p5
S'program'
p6
I1
S'p_program__forms'
p7
S'/home/josiah/Documents/Projects/abjad/abjad/tools/lilypondparsertools/_SchemeParser/_SchemeParser.py'
p8
I225
tp9
a(S'forms -> <empty>'
p10
S'forms'
p11
I0
S'p_forms__EMPTY'
p12
S'/home/josiah/Documents/Projects/abjad/abjad/tools/lilypondparsertools/_SchemeParser/_SchemeParser.py'
p13
I229
tp14
a(S'forms -> forms form'
p15
S'forms'
p16
I2
S'p_forms__forms__form'
p17
S'/home/josiah/Documents/Projects/abjad/abjad/tools/lilypondparsertools/_SchemeParser/_SchemeParser.py'
p18
I233
tp19
a(S'form -> expression'
p20
S'form'
p21
I1
S'p_form__expression'
p22
S'/home/josiah/Documents/Projects/abjad/abjad/tools/lilypondparsertools/_SchemeParser/_SchemeParser.py'
p23
I241
tp24
a(S"expression -> ' datum"
p25
S'expression'
p26
I2
S'p_expression__QUOTE__datum'
p27
S'/home/josiah/Documents/Projects/abjad/abjad/tools/lilypondparsertools/_SchemeParser/_SchemeParser.py'
p28
I296
tp29
a(S'datum -> boolean'
p30
S'datum'
p31
I1
S'p_datum__boolean'
p32
S'/home/josiah/Documents/Projects/abjad/abjad/tools/lilypondparsertools/_SchemeParser/_SchemeParser.py'
p33
I357
tp34
a(S'datum -> number'
p35
S'datum'
p36
I1
S'p_datum__number'
p37
S'/home/josiah/Documents/Projects/abjad/abjad/tools/lilypondparsertools/_SchemeParser/_SchemeParser.py'
p38
I361
tp39
a(S'datum -> string'
p40
S'datum'
p41
I1
S'p_datum__string'
p42
S'/home/josiah/Documents/Projects/abjad/abjad/tools/lilypondparsertools/_SchemeParser/_SchemeParser.py'
p43
I365
tp44
a(S'datum -> list'
p45
S'datum'
p46
I1
S'p_datum__list'
p47
S'/home/josiah/Documents/Projects/abjad/abjad/tools/lilypondparsertools/_SchemeParser/_SchemeParser.py'
p48
I369
tp49
a(S'datum -> vector'
p50
S'datum'
p51
I1
S'p_datum__vector'
p52
S'/home/josiah/Documents/Projects/abjad/abjad/tools/lilypondparsertools/_SchemeParser/_SchemeParser.py'
p53
I373
tp54
a(S'data -> <empty>'
p55
S'data'
p56
I0
S'p_data__EMPTY'
p57
S'/home/josiah/Documents/Projects/abjad/abjad/tools/lilypondparsertools/_SchemeParser/_SchemeParser.py'
p58
I377
tp59
a(S'data -> data datum'
p60
S'data'
p61
I2
S'p_data__data__datum'
p62
S'/home/josiah/Documents/Projects/abjad/abjad/tools/lilypondparsertools/_SchemeParser/_SchemeParser.py'
p63
I381
tp64
a(S'boolean -> BOOLEAN'
p65
S'boolean'
p66
I1
S'p_boolean__BOOLEAN'
p67
S'/home/josiah/Documents/Projects/abjad/abjad/tools/lilypondparsertools/_SchemeParser/_SchemeParser.py'
p68
I389
tp69
a(S'number -> DECIMAL'
p70
S'number'
p71
I1
S'p_number__DECIMAL'
p72
S'/home/josiah/Documents/Projects/abjad/abjad/tools/lilypondparsertools/_SchemeParser/_SchemeParser.py'
p73
I397
tp74
a(S'number -> INTEGER'
p75
S'number'
p76
I1
S'p_number__INTEGER'
p77
S'/home/josiah/Documents/Projects/abjad/abjad/tools/lilypondparsertools/_SchemeParser/_SchemeParser.py'
p78
I401
tp79
a(S'string -> STRING'
p80
S'string'
p81
I1
S'p_string__STRING'
p82
S'/home/josiah/Documents/Projects/abjad/abjad/tools/lilypondparsertools/_SchemeParser/_SchemeParser.py'
p83
I413
tp84
a(S'vector -> HASH L_PAREN data R_PAREN'
p85
S'vector'
p86
I4
S'p_vector__HASH__L_PAREN__data__R_PAREN'
p87
S'/home/josiah/Documents/Projects/abjad/abjad/tools/lilypondparsertools/_SchemeParser/_SchemeParser.py'
p88
I429
tp89
a(S'list -> L_PAREN data R_PAREN'
p90
S'list'
p91
I3
S'p_list__L_PAREN__data__R_PAREN'
p92
S'/home/josiah/Documents/Projects/abjad/abjad/tools/lilypondparsertools/_SchemeParser/_SchemeParser.py'
p93
I437
tp94
a(S'list -> L_PAREN datum data . datum R_PAREN'
p95
S'list'
p96
I6
S'p_list__L_PAREN__data__PERIOD__datum'
p97
S'/home/josiah/Documents/Projects/abjad/abjad/tools/lilypondparsertools/_SchemeParser/_SchemeParser.py'
p98
I441
tp99
a.