S'3.2'
p1
.S'LALR'
p1
.S'\xee\xc2<|y\xb7\xcct\xf2\xf6\xda\xa6N:\xcc\x01'
p1
.(dp1
I0
(dp2
S'STRING'
p3
I-2
sS'QUOTE'
p4
I-2
sS'DECIMAL'
p5
I-2
sS'BOOLEAN'
p6
I-2
sS'INTEGER'
p7
I-2
sS'$end'
p8
I-2
ssI1
(dp9
g3
I13
sg4
I6
sg5
I7
sg6
I11
sg7
I10
sg8
I-1
ssI2
(dp10
S'$end'
p11
I0
ssI3
(dp12
g3
I-6
sg4
I-6
sg5
I-6
sg6
I-6
sg7
I-6
sg8
I-6
ssI4
(dp13
S'L_PAREN'
p14
I-9
sS'HASH'
p15
I-9
sg3
I-9
sg4
I-9
sg5
I-9
sS'PERIOD'
p16
I-9
sS'R_PAREN'
p17
I-9
sg6
I-9
sg7
I-9
sS'IDENTIFIER'
p18
I-9
sg8
I-9
ssI5
(dp19
g3
I-3
sg4
I-3
sg5
I-3
sg6
I-3
sg7
I-3
sg8
I-3
ssI6
(dp20
g14
I14
sg15
I20
sg3
I13
sg5
I7
sg6
I11
sg7
I10
sg18
I21
ssI7
(dp21
g14
I-17
sg15
I-17
sg3
I-17
sg4
I-17
sg5
I-17
sg16
I-17
sS'R_PAREN'
p22
I-17
sg6
I-17
sg7
I-17
sg18
I-17
sg8
I-17
ssI8
(dp23
g14
I-8
sg15
I-8
sg3
I-8
sg4
I-8
sg5
I-8
sg16
I-8
sg17
I-8
sg6
I-8
sg7
I-8
sg18
I-8
sg8
I-8
ssI9
(dp24
g14
I-7
sg15
I-7
sg3
I-7
sg4
I-7
sg5
I-7
sg16
I-7
sg17
I-7
sg6
I-7
sg7
I-7
sg18
I-7
sg8
I-7
ssI10
(dp25
g14
I-18
sg15
I-18
sg3
I-18
sg4
I-18
sg5
I-18
sg16
I-18
sg22
I-18
sg6
I-18
sg7
I-18
sg18
I-18
sg8
I-18
ssI11
(dp26
g14
I-16
sg15
I-16
sg3
I-16
sg4
I-16
sg5
I-16
sg16
I-16
sg22
I-16
sg6
I-16
sg7
I-16
sg18
I-16
sg8
I-16
ssI12
(dp27
g3
I-4
sg4
I-4
sg5
I-4
sg6
I-4
sg7
I-4
sg8
I-4
ssI13
(dp28
g14
I-19
sg15
I-19
sg3
I-19
sg4
I-19
sg5
I-19
sg16
I-19
sg22
I-19
sg6
I-19
sg7
I-19
sg18
I-19
sg8
I-19
ssI14
(dp29
g14
I-14
sg15
I-14
sg3
I-14
sg5
I-14
sg22
I-14
sg6
I-14
sg7
I-14
sg18
I-14
ssI15
(dp30
g14
I-10
sg15
I-10
sg3
I-10
sg4
I-10
sg5
I-10
sg16
I-10
sS'R_PAREN'
p31
I-10
sg6
I-10
sg7
I-10
sg18
I-10
sg8
I-10
ssI16
(dp32
g14
I-11
sg15
I-11
sg3
I-11
sg4
I-11
sg5
I-11
sg16
I-11
sg31
I-11
sg6
I-11
sg7
I-11
sg18
I-11
sg8
I-11
ssI17
(dp33
g3
I-5
sg4
I-5
sg5
I-5
sg6
I-5
sg7
I-5
sg8
I-5
ssI18
(dp34
g14
I-12
sg15
I-12
sg3
I-12
sg4
I-12
sg5
I-12
sg16
I-12
sg31
I-12
sg6
I-12
sg7
I-12
sg18
I-12
sg8
I-12
ssI19
(dp35
g14
I-13
sg15
I-13
sg3
I-13
sg4
I-13
sg5
I-13
sg16
I-13
sg31
I-13
sg6
I-13
sg7
I-13
sg18
I-13
sg8
I-13
ssI20
(dp36
S'L_PAREN'
p37
I23
ssI21
(dp38
g14
I-20
sg15
I-20
sg3
I-20
sg4
I-20
sg5
I-20
sg16
I-20
sg31
I-20
sg6
I-20
sg7
I-20
sg18
I-20
sg8
I-20
ssI22
(dp39
g14
I14
sg15
I20
sg3
I13
sg5
I7
sg22
I25
sg6
I11
sg7
I10
sg18
I21
ssI23
(dp40
g14
I-14
sg15
I-14
sg3
I-14
sg5
I-14
sg31
I-14
sg6
I-14
sg7
I-14
sg18
I-14
ssI24
(dp41
g14
I-15
sg15
I-15
sg3
I-15
sg5
I-15
sg16
I27
sg22
I-15
sg6
I-15
sg7
I-15
sg18
I-15
ssI25
(dp42
g14
I-22
sg15
I-22
sg3
I-22
sg4
I-22
sg5
I-22
sg16
I-22
sg17
I-22
sg6
I-22
sg7
I-22
sg18
I-22
sg8
I-22
ssI26
(dp43
g14
I14
sg15
I20
sg3
I13
sg5
I7
sg31
I29
sg6
I11
sg7
I10
sg18
I21
ssI27
(dp44
g14
I14
sg15
I20
sg3
I13
sg5
I7
sg6
I11
sg7
I10
sg18
I21
ssI28
(dp45
g14
I-15
sg15
I-15
sg3
I-15
sg5
I-15
sg31
I-15
sg6
I-15
sg7
I-15
sg18
I-15
ssI29
(dp46
g14
I-21
sg15
I-21
sg3
I-21
sg4
I-21
sg5
I-21
sg16
I-21
sg31
I-21
sg6
I-21
sg7
I-21
sg18
I-21
sg8
I-21
ssI30
(dp47
g17
I31
ssI31
(dp48
g14
I-23
sg15
I-23
sg3
I-23
sg4
I-23
sg5
I-23
sg16
I-23
sg17
I-23
sg6
I-23
sg7
I-23
sg18
I-23
sg8
I-23
ss.(dp1
I0
(dp2
S'forms'
p3
I1
sS'program'
p4
I2
ssI1
(dp5
S'constant'
p6
I3
sS'string'
p7
I4
sS'form'
p8
I5
sS'number'
p9
I8
sS'boolean'
p10
I9
sS'expression'
p11
I12
ssI2
(dp12
sI3
(dp13
sI4
(dp14
sI5
(dp15
sI6
(dp16
S'constant'
p17
I15
sg7
I4
sg10
I9
sS'datum'
p18
I17
sS'symbol'
p19
I16
sS'list'
p20
I18
sg9
I8
sS'vector'
p21
I19
ssI7
(dp22
sI8
(dp23
sI9
(dp24
sI10
(dp25
sI11
(dp26
sI12
(dp27
sI13
(dp28
sI14
(dp29
S'data'
p30
I22
ssI15
(dp31
sI16
(dp32
sI17
(dp33
sI18
(dp34
sI19
(dp35
sI20
(dp36
sI21
(dp37
sI22
(dp38
g21
I19
sg17
I15
sg7
I4
sS'datum'
p39
I24
sg19
I16
sg20
I18
sg9
I8
sg10
I9
ssI23
(dp40
S'data'
p41
I26
ssI24
(dp42
sI25
(dp43
sI26
(dp44
g21
I19
sg17
I15
sg7
I4
sS'datum'
p45
I28
sg19
I16
sg20
I18
sg9
I8
sg10
I9
ssI27
(dp46
g21
I19
sg17
I15
sg7
I4
sg39
I30
sg19
I16
sg20
I18
sg9
I8
sg10
I9
ssI28
(dp47
sI29
(dp48
sI30
(dp49
sI31
(dp50
s.(lp1
(S"S' -> program"
p2
S"S'"
p3
I1
NNNtp4
a(S'program -> forms'
p5
S'program'
p6
I1
S'p_program__forms'
p7
S'/home/josiah/Documents/Projects/abjad/abjad/tools/lilypondparsertools/_SchemeParser/_SchemeParser.py'
p8
I289
tp9
a(S'forms -> <empty>'
p10
S'forms'
p11
I0
S'p_forms__EMPTY'
p12
S'/home/josiah/Documents/Projects/abjad/abjad/tools/lilypondparsertools/_SchemeParser/_SchemeParser.py'
p13
I294
tp14
a(S'forms -> forms form'
p15
S'forms'
p16
I2
S'p_forms__forms__form'
p17
S'/home/josiah/Documents/Projects/abjad/abjad/tools/lilypondparsertools/_SchemeParser/_SchemeParser.py'
p18
I298
tp19
a(S'form -> expression'
p20
S'form'
p21
I1
S'p_form__expression'
p22
S'/home/josiah/Documents/Projects/abjad/abjad/tools/lilypondparsertools/_SchemeParser/_SchemeParser.py'
p23
I307
tp24
a(S'expression -> QUOTE datum'
p25
S'expression'
p26
I2
S'p_expression__QUOTE__datum'
p27
S'/home/josiah/Documents/Projects/abjad/abjad/tools/lilypondparsertools/_SchemeParser/_SchemeParser.py'
p28
I368
tp29
a(S'expression -> constant'
p30
S'expression'
p31
I1
S'p_expression__constant'
p32
S'/home/josiah/Documents/Projects/abjad/abjad/tools/lilypondparsertools/_SchemeParser/_SchemeParser.py'
p33
I381
tp34
a(S'constant -> boolean'
p35
S'constant'
p36
I1
S'p_constant__boolean'
p37
S'/home/josiah/Documents/Projects/abjad/abjad/tools/lilypondparsertools/_SchemeParser/_SchemeParser.py'
p38
I390
tp39
a(S'constant -> number'
p40
S'constant'
p41
I1
S'p_constant__number'
p42
S'/home/josiah/Documents/Projects/abjad/abjad/tools/lilypondparsertools/_SchemeParser/_SchemeParser.py'
p43
I399
tp44
a(S'constant -> string'
p45
S'constant'
p46
I1
S'p_constant__string'
p47
S'/home/josiah/Documents/Projects/abjad/abjad/tools/lilypondparsertools/_SchemeParser/_SchemeParser.py'
p48
I408
tp49
a(S'datum -> constant'
p50
S'datum'
p51
I1
S'p_datum__constant'
p52
S'/home/josiah/Documents/Projects/abjad/abjad/tools/lilypondparsertools/_SchemeParser/_SchemeParser.py'
p53
I449
tp54
a(S'datum -> symbol'
p55
S'datum'
p56
I1
S'p_datum__symbol'
p57
S'/home/josiah/Documents/Projects/abjad/abjad/tools/lilypondparsertools/_SchemeParser/_SchemeParser.py'
p58
I454
tp59
a(S'datum -> list'
p60
S'datum'
p61
I1
S'p_datum__list'
p62
S'/home/josiah/Documents/Projects/abjad/abjad/tools/lilypondparsertools/_SchemeParser/_SchemeParser.py'
p63
I471
tp64
a(S'datum -> vector'
p65
S'datum'
p66
I1
S'p_datum__vector'
p67
S'/home/josiah/Documents/Projects/abjad/abjad/tools/lilypondparsertools/_SchemeParser/_SchemeParser.py'
p68
I476
tp69
a(S'data -> <empty>'
p70
S'data'
p71
I0
S'p_data__EMPTY'
p72
S'/home/josiah/Documents/Projects/abjad/abjad/tools/lilypondparsertools/_SchemeParser/_SchemeParser.py'
p73
I481
tp74
a(S'data -> data datum'
p75
S'data'
p76
I2
S'p_data__data__datum'
p77
S'/home/josiah/Documents/Projects/abjad/abjad/tools/lilypondparsertools/_SchemeParser/_SchemeParser.py'
p78
I485
tp79
a(S'boolean -> BOOLEAN'
p80
S'boolean'
p81
I1
S'p_boolean__BOOLEAN'
p82
S'/home/josiah/Documents/Projects/abjad/abjad/tools/lilypondparsertools/_SchemeParser/_SchemeParser.py'
p83
I494
tp84
a(S'number -> DECIMAL'
p85
S'number'
p86
I1
S'p_number__DECIMAL'
p87
S'/home/josiah/Documents/Projects/abjad/abjad/tools/lilypondparsertools/_SchemeParser/_SchemeParser.py'
p88
I503
tp89
a(S'number -> INTEGER'
p90
S'number'
p91
I1
S'p_number__INTEGER'
p92
S'/home/josiah/Documents/Projects/abjad/abjad/tools/lilypondparsertools/_SchemeParser/_SchemeParser.py'
p93
I508
tp94
a(S'string -> STRING'
p95
S'string'
p96
I1
S'p_string__STRING'
p97
S'/home/josiah/Documents/Projects/abjad/abjad/tools/lilypondparsertools/_SchemeParser/_SchemeParser.py'
p98
I521
tp99
a(S'symbol -> IDENTIFIER'
p100
S'symbol'
p101
I1
S'p_symbol__IDENTIFIER'
p102
S'/home/josiah/Documents/Projects/abjad/abjad/tools/lilypondparsertools/_SchemeParser/_SchemeParser.py'
p103
I534
tp104
a(S'vector -> HASH L_PAREN data R_PAREN'
p105
S'vector'
p106
I4
S'p_vector__HASH__L_PAREN__data__R_PAREN'
p107
S'/home/josiah/Documents/Projects/abjad/abjad/tools/lilypondparsertools/_SchemeParser/_SchemeParser.py'
p108
I543
tp109
a(S'list -> L_PAREN data R_PAREN'
p110
S'list'
p111
I3
S'p_list__L_PAREN__data__R_PAREN'
p112
S'/home/josiah/Documents/Projects/abjad/abjad/tools/lilypondparsertools/_SchemeParser/_SchemeParser.py'
p113
I553
tp114
a(S'list -> L_PAREN data datum PERIOD datum R_PAREN'
p115
S'list'
p116
I6
S'p_list__L_PAREN__data__datum__PERIOD__datum__R_PAREN'
p117
S'/home/josiah/Documents/Projects/abjad/abjad/tools/lilypondparsertools/_SchemeParser/_SchemeParser.py'
p118
I559
tp119
a.