S'3.2'
p1
.S'LALR'
p1
.S'2\x0fu(\xa6\x01Z\xfe\xbe:\x189e\xf9\xac\x8c'
p1
.(dp1
I0
(dp2
S'STRING'
p3
I-2
sS'QUOTE'
p4
I-2
sS'DECIMAL'
p5
I-2
sS'BOOLEAN'
p6
I-2
sS'INTEGER'
p7
I-2
sS'HEXADECIMAL'
p8
I-2
sS'IDENTIFIER'
p9
I-2
sS'$end'
p10
I-2
ssI1
(dp11
g3
I16
sg4
I7
sg5
I8
sg6
I3
sg7
I12
sg8
I13
sg9
I14
sg10
I-1
ssI2
(dp12
S'$end'
p13
I0
ssI3
(dp14
S'L_PAREN'
p15
I-18
sS'HASH'
p16
I-18
sg3
I-18
sg4
I-18
sg5
I-18
sS'PERIOD'
p17
I-18
sS'R_PAREN'
p18
I-18
sg6
I-18
sg7
I-18
sg8
I-18
sS'IDENTIFIER'
p19
I-18
sg10
I-18
ssI4
(dp20
g3
I-8
sg4
I-8
sg5
I-8
sg6
I-8
sg7
I-8
sg8
I-8
sg9
I-8
sg10
I-8
ssI5
(dp21
g15
I-11
sg16
I-11
sg3
I-11
sg4
I-11
sg5
I-11
sg17
I-11
sS'R_PAREN'
p22
I-11
sg6
I-11
sg7
I-11
sg8
I-11
sg19
I-11
sg10
I-11
ssI6
(dp23
g3
I-3
sg4
I-3
sg5
I-3
sg6
I-3
sg7
I-3
sg8
I-3
sg9
I-3
sg10
I-3
ssI7
(dp24
g15
I17
sg16
I23
sg3
I16
sg5
I8
sg6
I3
sg7
I12
sg8
I13
sg19
I24
ssI8
(dp25
g15
I-19
sg16
I-19
sg3
I-19
sg4
I-19
sg5
I-19
sg17
I-19
sg18
I-19
sg6
I-19
sg7
I-19
sg8
I-19
sg19
I-19
sg10
I-19
ssI9
(dp26
g15
I-10
sg16
I-10
sg3
I-10
sg4
I-10
sg5
I-10
sg17
I-10
sg22
I-10
sg6
I-10
sg7
I-10
sg8
I-10
sg19
I-10
sg10
I-10
ssI10
(dp27
g15
I-9
sg16
I-9
sg3
I-9
sg4
I-9
sg5
I-9
sg17
I-9
sg22
I-9
sg6
I-9
sg7
I-9
sg8
I-9
sg19
I-9
sg10
I-9
ssI11
(dp28
g3
I-6
sg4
I-6
sg5
I-6
sg6
I-6
sg7
I-6
sg8
I-6
sg9
I-6
sg10
I-6
ssI12
(dp29
g15
I-21
sg16
I-21
sg3
I-21
sg4
I-21
sg5
I-21
sg17
I-21
sg18
I-21
sg6
I-21
sg7
I-21
sg8
I-21
sg19
I-21
sg10
I-21
ssI13
(dp30
g15
I-20
sg16
I-20
sg3
I-20
sg4
I-20
sg5
I-20
sg17
I-20
sg18
I-20
sg6
I-20
sg7
I-20
sg8
I-20
sg19
I-20
sg10
I-20
ssI14
(dp31
g3
I-5
sg4
I-5
sg5
I-5
sg6
I-5
sg7
I-5
sg8
I-5
sg9
I-5
sg10
I-5
ssI15
(dp32
g3
I-4
sg4
I-4
sg5
I-4
sg6
I-4
sg7
I-4
sg8
I-4
sg9
I-4
sg10
I-4
ssI16
(dp33
g15
I-22
sg16
I-22
sg3
I-22
sg4
I-22
sg5
I-22
sg17
I-22
sS'R_PAREN'
p34
I-22
sg6
I-22
sg7
I-22
sg8
I-22
sg9
I-22
sg10
I-22
ssI17
(dp35
g15
I-16
sg16
I-16
sg3
I-16
sg5
I-16
sg34
I-16
sg6
I-16
sg7
I-16
sg8
I-16
sg19
I-16
ssI18
(dp36
g15
I-12
sg16
I-12
sg3
I-12
sg4
I-12
sg5
I-12
sg17
I-12
sg22
I-12
sg6
I-12
sg7
I-12
sg8
I-12
sg9
I-12
sg10
I-12
ssI19
(dp37
g15
I-13
sg16
I-13
sg3
I-13
sg4
I-13
sg5
I-13
sg17
I-13
sg22
I-13
sg6
I-13
sg7
I-13
sg8
I-13
sg9
I-13
sg10
I-13
ssI20
(dp38
g3
I-7
sg4
I-7
sg5
I-7
sg6
I-7
sg7
I-7
sg8
I-7
sg9
I-7
sg10
I-7
ssI21
(dp39
g15
I-14
sg16
I-14
sg3
I-14
sg4
I-14
sg5
I-14
sg17
I-14
sg22
I-14
sg6
I-14
sg7
I-14
sg8
I-14
sg9
I-14
sg10
I-14
ssI22
(dp40
g15
I-15
sg16
I-15
sg3
I-15
sg4
I-15
sg5
I-15
sg17
I-15
sg22
I-15
sg6
I-15
sg7
I-15
sg8
I-15
sg9
I-15
sg10
I-15
ssI23
(dp41
S'L_PAREN'
p42
I26
ssI24
(dp43
g15
I-23
sg16
I-23
sg3
I-23
sg4
I-23
sg5
I-23
sg17
I-23
sg34
I-23
sg6
I-23
sg7
I-23
sg8
I-23
sg19
I-23
sg10
I-23
ssI25
(dp44
g15
I17
sg16
I23
sg3
I16
sg5
I8
sg34
I28
sg6
I3
sg7
I12
sg8
I13
sg19
I24
ssI26
(dp45
g15
I-16
sg16
I-16
sg3
I-16
sg5
I-16
sg18
I-16
sg6
I-16
sg7
I-16
sg8
I-16
sg19
I-16
ssI27
(dp46
g15
I-17
sg16
I-17
sg3
I-17
sg5
I-17
sg17
I30
sg34
I-17
sg6
I-17
sg7
I-17
sg8
I-17
sg19
I-17
ssI28
(dp47
g15
I-25
sg16
I-25
sg3
I-25
sg4
I-25
sg5
I-25
sg17
I-25
sg22
I-25
sg6
I-25
sg7
I-25
sg8
I-25
sg9
I-25
sg10
I-25
ssI29
(dp48
g15
I17
sg16
I23
sg3
I16
sg5
I8
sg18
I32
sg6
I3
sg7
I12
sg8
I13
sg19
I24
ssI30
(dp49
g15
I17
sg16
I23
sg3
I16
sg5
I8
sg6
I3
sg7
I12
sg8
I13
sg19
I24
ssI31
(dp50
g15
I-17
sg16
I-17
sg3
I-17
sg5
I-17
sg18
I-17
sg6
I-17
sg7
I-17
sg8
I-17
sg19
I-17
ssI32
(dp51
g15
I-24
sg16
I-24
sg3
I-24
sg4
I-24
sg5
I-24
sg17
I-24
sg34
I-24
sg6
I-24
sg7
I-24
sg8
I-24
sg19
I-24
sg10
I-24
ssI33
(dp52
g22
I34
ssI34
(dp53
g15
I-26
sg16
I-26
sg3
I-26
sg4
I-26
sg5
I-26
sg17
I-26
sg22
I-26
sg6
I-26
sg7
I-26
sg8
I-26
sg9
I-26
sg10
I-26
ss.(dp1
I0
(dp2
S'forms'
p3
I1
sS'program'
p4
I2
ssI1
(dp5
S'constant'
p6
I4
sS'string'
p7
I5
sS'form'
p8
I6
sS'number'
p9
I9
sS'boolean'
p10
I10
sS'variable'
p11
I11
sS'expression'
p12
I15
ssI2
(dp13
sI3
(dp14
sI4
(dp15
sI5
(dp16
sI6
(dp17
sI7
(dp18
S'constant'
p19
I18
sg7
I5
sg10
I10
sS'datum'
p20
I20
sS'symbol'
p21
I19
sS'list'
p22
I21
sg9
I9
sS'vector'
p23
I22
ssI8
(dp24
sI9
(dp25
sI10
(dp26
sI11
(dp27
sI12
(dp28
sI13
(dp29
sI14
(dp30
sI15
(dp31
sI16
(dp32
sI17
(dp33
S'data'
p34
I25
ssI18
(dp35
sI19
(dp36
sI20
(dp37
sI21
(dp38
sI22
(dp39
sI23
(dp40
sI24
(dp41
sI25
(dp42
g23
I22
sg19
I18
sg7
I5
sS'datum'
p43
I27
sg21
I19
sg22
I21
sg9
I9
sg10
I10
ssI26
(dp44
S'data'
p45
I29
ssI27
(dp46
sI28
(dp47
sI29
(dp48
g23
I22
sg19
I18
sg7
I5
sS'datum'
p49
I31
sg21
I19
sg22
I21
sg9
I9
sg10
I10
ssI30
(dp50
g23
I22
sg19
I18
sg7
I5
sg43
I33
sg21
I19
sg22
I21
sg9
I9
sg10
I10
ssI31
(dp51
sI32
(dp52
sI33
(dp53
sI34
(dp54
s.(lp1
(S"S' -> program"
p2
S"S'"
p3
I1
NNNtp4
a(S'program -> forms'
p5
S'program'
p6
I1
S'p_program__forms'
p7
S'/media/Work/dev/scores/abjad/trunk/abjad/tools/lilypondparsertools/SchemeParser/SchemeParser.py'
p8
I251
tp9
a(S'forms -> <empty>'
p10
S'forms'
p11
I0
S'p_forms__EMPTY'
p12
S'/media/Work/dev/scores/abjad/trunk/abjad/tools/lilypondparsertools/SchemeParser/SchemeParser.py'
p13
I256
tp14
a(S'forms -> forms form'
p15
S'forms'
p16
I2
S'p_forms__forms__form'
p17
S'/media/Work/dev/scores/abjad/trunk/abjad/tools/lilypondparsertools/SchemeParser/SchemeParser.py'
p18
I260
tp19
a(S'form -> expression'
p20
S'form'
p21
I1
S'p_form__expression'
p22
S'/media/Work/dev/scores/abjad/trunk/abjad/tools/lilypondparsertools/SchemeParser/SchemeParser.py'
p23
I269
tp24
a(S'variable -> IDENTIFIER'
p25
S'variable'
p26
I1
S'p_variable__IDENTIFIER'
p27
S'/media/Work/dev/scores/abjad/trunk/abjad/tools/lilypondparsertools/SchemeParser/SchemeParser.py'
p28
I302
tp29
a(S'expression -> variable'
p30
S'expression'
p31
I1
S'p_expression__variable'
p32
S'/media/Work/dev/scores/abjad/trunk/abjad/tools/lilypondparsertools/SchemeParser/SchemeParser.py'
p33
I339
tp34
a(S'expression -> QUOTE datum'
p35
S'expression'
p36
I2
S'p_expression__QUOTE__datum'
p37
S'/media/Work/dev/scores/abjad/trunk/abjad/tools/lilypondparsertools/SchemeParser/SchemeParser.py'
p38
I346
tp39
a(S'expression -> constant'
p40
S'expression'
p41
I1
S'p_expression__constant'
p42
S'/media/Work/dev/scores/abjad/trunk/abjad/tools/lilypondparsertools/SchemeParser/SchemeParser.py'
p43
I361
tp44
a(S'constant -> boolean'
p45
S'constant'
p46
I1
S'p_constant__boolean'
p47
S'/media/Work/dev/scores/abjad/trunk/abjad/tools/lilypondparsertools/SchemeParser/SchemeParser.py'
p48
I370
tp49
a(S'constant -> number'
p50
S'constant'
p51
I1
S'p_constant__number'
p52
S'/media/Work/dev/scores/abjad/trunk/abjad/tools/lilypondparsertools/SchemeParser/SchemeParser.py'
p53
I381
tp54
a(S'constant -> string'
p55
S'constant'
p56
I1
S'p_constant__string'
p57
S'/media/Work/dev/scores/abjad/trunk/abjad/tools/lilypondparsertools/SchemeParser/SchemeParser.py'
p58
I392
tp59
a(S'datum -> constant'
p60
S'datum'
p61
I1
S'p_datum__constant'
p62
S'/media/Work/dev/scores/abjad/trunk/abjad/tools/lilypondparsertools/SchemeParser/SchemeParser.py'
p63
I435
tp64
a(S'datum -> symbol'
p65
S'datum'
p66
I1
S'p_datum__symbol'
p67
S'/media/Work/dev/scores/abjad/trunk/abjad/tools/lilypondparsertools/SchemeParser/SchemeParser.py'
p68
I440
tp69
a(S'datum -> list'
p70
S'datum'
p71
I1
S'p_datum__list'
p72
S'/media/Work/dev/scores/abjad/trunk/abjad/tools/lilypondparsertools/SchemeParser/SchemeParser.py'
p73
I457
tp74
a(S'datum -> vector'
p75
S'datum'
p76
I1
S'p_datum__vector'
p77
S'/media/Work/dev/scores/abjad/trunk/abjad/tools/lilypondparsertools/SchemeParser/SchemeParser.py'
p78
I462
tp79
a(S'data -> <empty>'
p80
S'data'
p81
I0
S'p_data__EMPTY'
p82
S'/media/Work/dev/scores/abjad/trunk/abjad/tools/lilypondparsertools/SchemeParser/SchemeParser.py'
p83
I467
tp84
a(S'data -> data datum'
p85
S'data'
p86
I2
S'p_data__data__datum'
p87
S'/media/Work/dev/scores/abjad/trunk/abjad/tools/lilypondparsertools/SchemeParser/SchemeParser.py'
p88
I471
tp89
a(S'boolean -> BOOLEAN'
p90
S'boolean'
p91
I1
S'p_boolean__BOOLEAN'
p92
S'/media/Work/dev/scores/abjad/trunk/abjad/tools/lilypondparsertools/SchemeParser/SchemeParser.py'
p93
I480
tp94
a(S'number -> DECIMAL'
p95
S'number'
p96
I1
S'p_number__DECIMAL'
p97
S'/media/Work/dev/scores/abjad/trunk/abjad/tools/lilypondparsertools/SchemeParser/SchemeParser.py'
p98
I489
tp99
a(S'number -> HEXADECIMAL'
p100
S'number'
p101
I1
S'p_number__HEXADECIMAL'
p102
S'/media/Work/dev/scores/abjad/trunk/abjad/tools/lilypondparsertools/SchemeParser/SchemeParser.py'
p103
I494
tp104
a(S'number -> INTEGER'
p105
S'number'
p106
I1
S'p_number__INTEGER'
p107
S'/media/Work/dev/scores/abjad/trunk/abjad/tools/lilypondparsertools/SchemeParser/SchemeParser.py'
p108
I499
tp109
a(S'string -> STRING'
p110
S'string'
p111
I1
S'p_string__STRING'
p112
S'/media/Work/dev/scores/abjad/trunk/abjad/tools/lilypondparsertools/SchemeParser/SchemeParser.py'
p113
I512
tp114
a(S'symbol -> IDENTIFIER'
p115
S'symbol'
p116
I1
S'p_symbol__IDENTIFIER'
p117
S'/media/Work/dev/scores/abjad/trunk/abjad/tools/lilypondparsertools/SchemeParser/SchemeParser.py'
p118
I525
tp119
a(S'vector -> HASH L_PAREN data R_PAREN'
p120
S'vector'
p121
I4
S'p_vector__HASH__L_PAREN__data__R_PAREN'
p122
S'/media/Work/dev/scores/abjad/trunk/abjad/tools/lilypondparsertools/SchemeParser/SchemeParser.py'
p123
I536
tp124
a(S'list -> L_PAREN data R_PAREN'
p125
S'list'
p126
I3
S'p_list__L_PAREN__data__R_PAREN'
p127
S'/media/Work/dev/scores/abjad/trunk/abjad/tools/lilypondparsertools/SchemeParser/SchemeParser.py'
p128
I546
tp129
a(S'list -> L_PAREN data datum PERIOD datum R_PAREN'
p130
S'list'
p131
I6
S'p_list__L_PAREN__data__datum__PERIOD__datum__R_PAREN'
p132
S'/media/Work/dev/scores/abjad/trunk/abjad/tools/lilypondparsertools/SchemeParser/SchemeParser.py'
p133
I552
tp134
a.