S'3.2'
p1
.S'LALR'
p1
.S'2(\xcd\x01pq\x1d1\xb9*\xd92\xea\xc1t\xcd'
p1
.(dp1
I0
(dp2
S'LPAREN'
p3
I-1
sS'$end'
p4
I-1
ssI1
(dp5
g3
I3
sS'$end'
p6
I0
ssI2
(dp7
g3
I-2
sg4
I-2
ssI3
(dp8
S'INTEGER'
p9
I4
ssI4
(dp10
S'LPAREN'
p11
I6
ssI5
(dp12
S'RPAREN'
p13
I7
ssI6
(dp14
S'INTEGER'
p15
I11
sg3
I3
ssI7
(dp16
g15
I-3
sS'RPAREN'
p17
I-3
sg3
I-3
sg4
I-3
ssI8
(dp18
g15
I-8
sg17
I-8
sg3
I-8
ssI9
(dp19
g15
I-5
sg17
I-5
sg3
I-5
ssI10
(dp20
g15
I11
sg17
I13
sg3
I3
ssI11
(dp21
g15
I-7
sg17
I-7
sg3
I-7
ssI12
(dp22
g15
I-6
sg17
I-6
sg3
I-6
ssI13
(dp23
g13
I-4
ss.(dp1
I0
(dp2
S'nodes'
p3
I1
ssI1
(dp4
S'node'
p5
I2
ssI2
(dp6
sI3
(dp7
sI4
(dp8
S'node_list_closed'
p9
I5
ssI5
(dp10
sI6
(dp11
S'node'
p12
I8
sS'node_list_item'
p13
I9
sS'node_list'
p14
I10
ssI7
(dp15
sI8
(dp16
sI9
(dp17
sI10
(dp18
g12
I8
sS'node_list_item'
p19
I12
ssI11
(dp20
sI12
(dp21
sI13
(dp22
s.(lp1
(S"S' -> nodes"
p2
S"S'"
p3
I1
NNNtp4
a(S'nodes -> <empty>'
p5
S'nodes'
p6
I0
S'p_nodes__EMPTY'
p7
S'/home/josiah/Documents/Projects/abjad/abjad/tools/rhythmtreetools/_RTMParser/_RTMParser.py'
p8
I85
tp9
a(S'nodes -> nodes node'
p10
S'nodes'
p11
I2
S'p_nodes__nodes__node'
p12
S'/home/josiah/Documents/Projects/abjad/abjad/tools/rhythmtreetools/_RTMParser/_RTMParser.py'
p13
I89
tp14
a(S'node -> LPAREN INTEGER node_list_closed RPAREN'
p15
S'node'
p16
I4
S'p_node__LPAREN__INTEGER__node_list_closed__RPAREN'
p17
S'/home/josiah/Documents/Projects/abjad/abjad/tools/rhythmtreetools/_RTMParser/_RTMParser.py'
p18
I93
tp19
a(S'node_list_closed -> LPAREN node_list RPAREN'
p20
S'node_list_closed'
p21
I3
S'p_node_list_closed__LPAREN__node_list__RPAREN'
p22
S'/home/josiah/Documents/Projects/abjad/abjad/tools/rhythmtreetools/_RTMParser/_RTMParser.py'
p23
I97
tp24
a(S'node_list -> node_list_item'
p25
S'node_list'
p26
I1
S'p_node_list__node_list_item'
p27
S'/home/josiah/Documents/Projects/abjad/abjad/tools/rhythmtreetools/_RTMParser/_RTMParser.py'
p28
I101
tp29
a(S'node_list -> node_list node_list_item'
p30
S'node_list'
p31
I2
S'p_node_list__node_list__node_list_item'
p32
S'/home/josiah/Documents/Projects/abjad/abjad/tools/rhythmtreetools/_RTMParser/_RTMParser.py'
p33
I105
tp34
a(S'node_list_item -> INTEGER'
p35
S'node_list_item'
p36
I1
S'p_node_list_item__INTEGER'
p37
S'/home/josiah/Documents/Projects/abjad/abjad/tools/rhythmtreetools/_RTMParser/_RTMParser.py'
p38
I109
tp39
a(S'node_list_item -> node'
p40
S'node_list_item'
p41
I1
S'p_node_list_item__node'
p42
S'/home/josiah/Documents/Projects/abjad/abjad/tools/rhythmtreetools/_RTMParser/_RTMParser.py'
p43
I113
tp44
a.