S'3.2'
p1
.S'LALR'
p1
.S"\x1c'\x1e\x93\xd3S\xe4\xaa\xb9\xf1\x1b!j,\xa6\xd5"
p1
.(dp1
I0
(dp2
S'LPAREN'
p3
I-9
sS'$end'
p4
I-9
ssI1
(dp5
g3
I2
sS'$end'
p6
I0
ssI2
(dp7
S'INTEGER'
p8
I4
ssI3
(dp9
g3
I-10
sg4
I-10
ssI4
(dp10
S'LPAREN'
p11
I6
ssI5
(dp12
S'RPAREN'
p13
I7
ssI6
(dp14
S'INTEGER'
p15
I13
sg3
I2
ssI7
(dp16
g15
I-1
sS'RPAREN'
p17
I-1
sg3
I-1
sg4
I-1
ssI8
(dp18
g15
I-8
sg17
I-8
sg3
I-8
ssI9
(dp19
g15
I-6
sg17
I-6
sg3
I-6
ssI10
(dp20
g15
I-3
sg17
I-3
sg3
I-3
ssI11
(dp21
g15
I13
sg17
I15
sg3
I2
ssI12
(dp22
g15
I-4
sg17
I-4
sg3
I-4
ssI13
(dp23
g15
I-2
sg17
I-2
sg3
I-2
ssI14
(dp24
g15
I-7
sg17
I-7
sg3
I-7
ssI15
(dp25
g13
I-5
ss.(dp1
I0
(dp2
S'toplevel'
p3
I1
ssI1
(dp4
S'container'
p5
I3
ssI2
(dp6
sI3
(dp7
sI4
(dp8
S'node_list_closed'
p9
I5
ssI5
(dp10
sI6
(dp11
S'node'
p12
I8
sS'node_list_item'
p13
I9
sS'container'
p14
I10
sS'leaf'
p15
I12
sS'node_list'
p16
I11
ssI7
(dp17
sI8
(dp18
sI9
(dp19
sI10
(dp20
sI11
(dp21
g12
I8
sS'node_list_item'
p22
I14
sg14
I10
sg15
I12
ssI12
(dp23
sI13
(dp24
sI14
(dp25
sI15
(dp26
s.(lp1
(S"S' -> toplevel"
p2
S"S'"
p3
I1
NNNtp4
a(S'container -> LPAREN INTEGER node_list_closed RPAREN'
p5
S'container'
p6
I4
S'p_container__LPAREN__INTEGER__node_list_closed__RPAREN'
p7
S'/home/josiah/Documents/Projects/abjad/trunk/abjad/tools/rhythmtreetools/RhythmTreeParser/RhythmTreeParser.py'
p8
I42
tp9
a(S'leaf -> INTEGER'
p10
S'leaf'
p11
I1
S'p_leaf__INTEGER'
p12
S'/home/josiah/Documents/Projects/abjad/trunk/abjad/tools/rhythmtreetools/RhythmTreeParser/RhythmTreeParser.py'
p13
I46
tp14
a(S'node -> container'
p15
S'node'
p16
I1
S'p_node__container'
p17
S'/home/josiah/Documents/Projects/abjad/trunk/abjad/tools/rhythmtreetools/RhythmTreeParser/RhythmTreeParser.py'
p18
I50
tp19
a(S'node -> leaf'
p20
S'node'
p21
I1
S'p_node__leaf'
p22
S'/home/josiah/Documents/Projects/abjad/trunk/abjad/tools/rhythmtreetools/RhythmTreeParser/RhythmTreeParser.py'
p23
I54
tp24
a(S'node_list_closed -> LPAREN node_list RPAREN'
p25
S'node_list_closed'
p26
I3
S'p_node_list_closed__LPAREN__node_list__RPAREN'
p27
S'/home/josiah/Documents/Projects/abjad/trunk/abjad/tools/rhythmtreetools/RhythmTreeParser/RhythmTreeParser.py'
p28
I58
tp29
a(S'node_list -> node_list_item'
p30
S'node_list'
p31
I1
S'p_node_list__node_list_item'
p32
S'/home/josiah/Documents/Projects/abjad/trunk/abjad/tools/rhythmtreetools/RhythmTreeParser/RhythmTreeParser.py'
p33
I62
tp34
a(S'node_list -> node_list node_list_item'
p35
S'node_list'
p36
I2
S'p_node_list__node_list__node_list_item'
p37
S'/home/josiah/Documents/Projects/abjad/trunk/abjad/tools/rhythmtreetools/RhythmTreeParser/RhythmTreeParser.py'
p38
I66
tp39
a(S'node_list_item -> node'
p40
S'node_list_item'
p41
I1
S'p_node_list_item__node'
p42
S'/home/josiah/Documents/Projects/abjad/trunk/abjad/tools/rhythmtreetools/RhythmTreeParser/RhythmTreeParser.py'
p43
I70
tp44
a(S'toplevel -> <empty>'
p45
S'toplevel'
p46
I0
S'p_toplevel__EMPTY'
p47
S'/home/josiah/Documents/Projects/abjad/trunk/abjad/tools/rhythmtreetools/RhythmTreeParser/RhythmTreeParser.py'
p48
I74
tp49
a(S'toplevel -> toplevel container'
p50
S'toplevel'
p51
I2
S'p_toplevel__toplevel__container'
p52
S'/home/josiah/Documents/Projects/abjad/trunk/abjad/tools/rhythmtreetools/RhythmTreeParser/RhythmTreeParser.py'
p53
I78
tp54
a.