S'3.2'
p1
.S'LALR'
p1
.S'\xb7\x9a\x02\xda2N=\xe0\x0bKt5\xa8x\xd4\xac'
p1
.(dp1
I0
(dp2
S'DURATION'
p3
I-9
sS'LPAREN'
p4
I-9
sS'$end'
p5
I-9
ssI1
(dp6
g3
I5
sg4
I4
sS'$end'
p7
I0
ssI2
(dp8
g3
I-10
sg4
I-10
sg5
I-10
ssI3
(dp9
g3
I-4
sS'RPAREN'
p10
I-4
sg4
I-4
sg5
I-4
ssI4
(dp11
S'DURATION'
p12
I7
ssI5
(dp13
g3
I-2
sg10
I-2
sg4
I-2
sg5
I-2
ssI6
(dp14
g3
I-3
sg10
I-3
sg4
I-3
sg5
I-3
ssI7
(dp15
S'LPAREN'
p16
I9
ssI8
(dp17
S'RPAREN'
p18
I10
ssI9
(dp19
g3
I5
sg4
I4
ssI10
(dp20
g3
I-1
sg10
I-1
sg4
I-1
sg5
I-1
ssI11
(dp21
g3
I-8
sg10
I-8
sg4
I-8
ssI12
(dp22
g3
I-6
sg10
I-6
sg4
I-6
ssI13
(dp23
g3
I5
sg10
I15
sg4
I4
ssI14
(dp24
g3
I-7
sg10
I-7
sg4
I-7
ssI15
(dp25
g18
I-5
ss.(dp1
I0
(dp2
S'toplevel'
p3
I1
ssI1
(dp4
S'node'
p5
I2
sS'container'
p6
I6
sS'leaf'
p7
I3
ssI2
(dp8
sI3
(dp9
sI4
(dp10
sI5
(dp11
sI6
(dp12
sI7
(dp13
S'node_list_closed'
p14
I8
ssI8
(dp15
sI9
(dp16
S'node'
p17
I11
sS'node_list_item'
p18
I12
sg6
I6
sg7
I3
sS'node_list'
p19
I13
ssI10
(dp20
sI11
(dp21
sI12
(dp22
sI13
(dp23
g17
I11
sS'node_list_item'
p24
I14
sg6
I6
sg7
I3
ssI14
(dp25
sI15
(dp26
s.(lp1
(S"S' -> toplevel"
p2
S"S'"
p3
I1
NNNtp4
a(S'container -> LPAREN DURATION node_list_closed RPAREN'
p5
S'container'
p6
I4
S'p_container__LPAREN__DURATION__node_list_closed__RPAREN'
p7
S'/media/Work/dev/scores/abjad/trunk/abjad/tools/rhythmtreetools/RhythmTreeParser/RhythmTreeParser.py'
p8
I112
tp9
a(S'leaf -> DURATION'
p10
S'leaf'
p11
I1
S'p_leaf__INTEGER'
p12
S'/media/Work/dev/scores/abjad/trunk/abjad/tools/rhythmtreetools/RhythmTreeParser/RhythmTreeParser.py'
p13
I117
tp14
a(S'node -> container'
p15
S'node'
p16
I1
S'p_node__container'
p17
S'/media/Work/dev/scores/abjad/trunk/abjad/tools/rhythmtreetools/RhythmTreeParser/RhythmTreeParser.py'
p18
I122
tp19
a(S'node -> leaf'
p20
S'node'
p21
I1
S'p_node__leaf'
p22
S'/media/Work/dev/scores/abjad/trunk/abjad/tools/rhythmtreetools/RhythmTreeParser/RhythmTreeParser.py'
p23
I126
tp24
a(S'node_list_closed -> LPAREN node_list RPAREN'
p25
S'node_list_closed'
p26
I3
S'p_node_list_closed__LPAREN__node_list__RPAREN'
p27
S'/media/Work/dev/scores/abjad/trunk/abjad/tools/rhythmtreetools/RhythmTreeParser/RhythmTreeParser.py'
p28
I130
tp29
a(S'node_list -> node_list_item'
p30
S'node_list'
p31
I1
S'p_node_list__node_list_item'
p32
S'/media/Work/dev/scores/abjad/trunk/abjad/tools/rhythmtreetools/RhythmTreeParser/RhythmTreeParser.py'
p33
I134
tp34
a(S'node_list -> node_list node_list_item'
p35
S'node_list'
p36
I2
S'p_node_list__node_list__node_list_item'
p37
S'/media/Work/dev/scores/abjad/trunk/abjad/tools/rhythmtreetools/RhythmTreeParser/RhythmTreeParser.py'
p38
I138
tp39
a(S'node_list_item -> node'
p40
S'node_list_item'
p41
I1
S'p_node_list_item__node'
p42
S'/media/Work/dev/scores/abjad/trunk/abjad/tools/rhythmtreetools/RhythmTreeParser/RhythmTreeParser.py'
p43
I142
tp44
a(S'toplevel -> <empty>'
p45
S'toplevel'
p46
I0
S'p_toplevel__EMPTY'
p47
S'/media/Work/dev/scores/abjad/trunk/abjad/tools/rhythmtreetools/RhythmTreeParser/RhythmTreeParser.py'
p48
I146
tp49
a(S'toplevel -> toplevel node'
p50
S'toplevel'
p51
I2
S'p_toplevel__toplevel__node'
p52
S'/media/Work/dev/scores/abjad/trunk/abjad/tools/rhythmtreetools/RhythmTreeParser/RhythmTreeParser.py'
p53
I150
tp54
a.