S'3.2'
p1
.S'LALR'
p1
.S'<\xd0"k\x8e\x13@\x89\xd6Il\xd8\xfb/\xf0J'
p1
.(dp1
I0
(dp2
S'PARENTHESIS_L'
p3
I1
sS'IDENTIFIER'
p4
I6
ssI1
(dp5
S'PITCHNAME'
p6
I9
ssI2
(dp7
S'SEMICOLON'
p8
I-12
ssI3
(dp9
S'SEMICOLON'
p10
I11
ssI4
(dp11
g3
I1
sg4
I6
sS'$end'
p12
I0
ssI5
(dp13
g3
I-16
sg4
I-16
sS'$end'
p14
I-16
ssI6
(dp15
S'EQUALS'
p16
I13
sg8
I-11
ssI7
(dp17
g8
I14
ssI8
(dp18
g6
I9
sS'PARENTHESIS_R'
p19
I16
ssI9
(dp20
S'APOSTROPHE'
p21
I20
sS'COMMA'
p22
I18
sg6
I-5
sg19
I-5
ssI10
(dp23
g6
I-9
sg19
I-9
ssI11
(dp24
g3
I-14
sg4
I-14
sg14
I-14
ssI12
(dp25
g3
I-17
sg4
I-17
sg14
I-17
ssI13
(dp26
g3
I1
sS'IDENTIFIER'
p27
I21
ssI14
(dp28
g3
I-15
sg4
I-15
sg14
I-15
ssI15
(dp29
g6
I-10
sg19
I-10
ssI16
(dp30
g8
I-8
ssI17
(dp31
S'APOSTROPHE'
p32
I23
sg6
I-6
sg19
I-6
ssI18
(dp33
S'COMMA'
p34
I-3
sg6
I-3
sg19
I-3
ssI19
(dp35
g34
I24
sg6
I-7
sg19
I-7
ssI20
(dp36
g32
I-1
sg6
I-1
sg19
I-1
ssI21
(dp37
g10
I-11
ssI22
(dp38
g10
I-13
ssI23
(dp39
g32
I-2
sg6
I-2
sg19
I-2
ssI24
(dp40
g34
I-4
sg6
I-4
sg19
I-4
ss.(dp1
I0
(dp2
S'assignment'
p3
I3
sS'expression'
p4
I7
sS'start'
p5
I4
sS'statement'
p6
I5
sS'pitch_cell'
p7
I2
ssI1
(dp8
S'pitches'
p9
I8
sS'pitch'
p10
I10
ssI2
(dp11
sI3
(dp12
sI4
(dp13
g3
I3
sg4
I7
sS'statement'
p14
I12
sg7
I2
ssI5
(dp15
sI6
(dp16
sI7
(dp17
sI8
(dp18
S'pitch'
p19
I15
ssI9
(dp20
S'apostrophes'
p21
I17
sS'commas'
p22
I19
ssI10
(dp23
sI11
(dp24
sI12
(dp25
sI13
(dp26
S'expression'
p27
I22
sg7
I2
ssI14
(dp28
sI15
(dp29
sI16
(dp30
sI17
(dp31
sI18
(dp32
sI19
(dp33
sI20
(dp34
sI21
(dp35
sI22
(dp36
sI23
(dp37
sI24
(dp38
s.(lp1
(S"S' -> start"
p2
S"S'"
p3
I1
NNNtp4
a(S'apostrophes -> APOSTROPHE'
p5
S'apostrophes'
p6
I1
S'p_apostrophes__APOSTROPHE'
p7
S'/Users/trevorbaca/Documents/abjad/experimental/demos/microlanguage/ToyLanguageParser/ToyLanguageParser.py'
p8
I96
tp9
a(S'apostrophes -> apostrophes APOSTROPHE'
p10
S'apostrophes'
p11
I2
S'p_apostrophes__apostrophes__APOSTROPHE'
p12
S'/Users/trevorbaca/Documents/abjad/experimental/demos/microlanguage/ToyLanguageParser/ToyLanguageParser.py'
p13
I100
tp14
a(S'commas -> COMMA'
p15
S'commas'
p16
I1
S'p_commas__COMMA'
p17
S'/Users/trevorbaca/Documents/abjad/experimental/demos/microlanguage/ToyLanguageParser/ToyLanguageParser.py'
p18
I104
tp19
a(S'commas -> commas COMMA'
p20
S'commas'
p21
I2
S'p_commas__commas__commas'
p22
S'/Users/trevorbaca/Documents/abjad/experimental/demos/microlanguage/ToyLanguageParser/ToyLanguageParser.py'
p23
I108
tp24
a(S'pitch -> PITCHNAME'
p25
S'pitch'
p26
I1
S'p_pitch__PITCHNAME'
p27
S'/Users/trevorbaca/Documents/abjad/experimental/demos/microlanguage/ToyLanguageParser/ToyLanguageParser.py'
p28
I112
tp29
a(S'pitch -> PITCHNAME apostrophes'
p30
S'pitch'
p31
I2
S'p_pitch__PITCHNAME__apostrophes'
p32
S'/Users/trevorbaca/Documents/abjad/experimental/demos/microlanguage/ToyLanguageParser/ToyLanguageParser.py'
p33
I116
tp34
a(S'pitch -> PITCHNAME commas'
p35
S'pitch'
p36
I2
S'p_pitch__PITCHNAME__commas'
p37
S'/Users/trevorbaca/Documents/abjad/experimental/demos/microlanguage/ToyLanguageParser/ToyLanguageParser.py'
p38
I120
tp39
a(S'pitch_cell -> PARENTHESIS_L pitches PARENTHESIS_R'
p40
S'pitch_cell'
p41
I3
S'p_pitch_cell__PARENTHESIS_L__pitches__PARENTHESIS_R'
p42
S'/Users/trevorbaca/Documents/abjad/experimental/demos/microlanguage/ToyLanguageParser/ToyLanguageParser.py'
p43
I126
tp44
a(S'pitches -> pitch'
p45
S'pitches'
p46
I1
S'p_pitches__pitch'
p47
S'/Users/trevorbaca/Documents/abjad/experimental/demos/microlanguage/ToyLanguageParser/ToyLanguageParser.py'
p48
I130
tp49
a(S'pitches -> pitches pitch'
p50
S'pitches'
p51
I2
S'p_pitches__pitches__pitch'
p52
S'/Users/trevorbaca/Documents/abjad/experimental/demos/microlanguage/ToyLanguageParser/ToyLanguageParser.py'
p53
I134
tp54
a(S'expression -> IDENTIFIER'
p55
S'expression'
p56
I1
S'p_expression__IDENTIFIER'
p57
S'/Users/trevorbaca/Documents/abjad/experimental/demos/microlanguage/ToyLanguageParser/ToyLanguageParser.py'
p58
I140
tp59
a(S'expression -> pitch_cell'
p60
S'expression'
p61
I1
S'p_expression__pitch_cell'
p62
S'/Users/trevorbaca/Documents/abjad/experimental/demos/microlanguage/ToyLanguageParser/ToyLanguageParser.py'
p63
I144
tp64
a(S'assignment -> IDENTIFIER EQUALS expression'
p65
S'assignment'
p66
I3
S'p_assignment__IDENTIFIER__EQUALS__expression'
p67
S'/Users/trevorbaca/Documents/abjad/experimental/demos/microlanguage/ToyLanguageParser/ToyLanguageParser.py'
p68
I150
tp69
a(S'statement -> assignment SEMICOLON'
p70
S'statement'
p71
I2
S'p_statement__assignment__SEMICOLON'
p72
S'/Users/trevorbaca/Documents/abjad/experimental/demos/microlanguage/ToyLanguageParser/ToyLanguageParser.py'
p73
I159
tp74
a(S'statement -> expression SEMICOLON'
p75
S'statement'
p76
I2
S'p_statement__expression__SEMICOLON'
p77
S'/Users/trevorbaca/Documents/abjad/experimental/demos/microlanguage/ToyLanguageParser/ToyLanguageParser.py'
p78
I163
tp79
a(S'start -> statement'
p80
S'start'
p81
I1
S'p_start__EMPTY'
p82
S'/Users/trevorbaca/Documents/abjad/experimental/demos/microlanguage/ToyLanguageParser/ToyLanguageParser.py'
p83
I169
tp84
a(S'start -> start statement'
p85
S'start'
p86
I2
S'p_start__start__statement'
p87
S'/Users/trevorbaca/Documents/abjad/experimental/demos/microlanguage/ToyLanguageParser/ToyLanguageParser.py'
p88
I173
tp89
a.