S'3.2'
p1
.S'LALR'
p1
.S'\xa1(I{\x83\xa2<&k\x19\xc6d\x93\xfe\x81\x11'
p1
.(dp1
I0
(dp2
S'INTEGER_P'
p3
I-45
sS'CARAT_L'
p4
I-45
sS'INTEGER_N'
p5
I-45
sS'BRACE_L'
p6
I-45
sS'PITCHNAME'
p7
I-45
sS'PIPE'
p8
I-45
sS'FRACTION'
p9
I-45
sS'RESTNAME'
p10
I-45
sS'$end'
p11
I-45
ssI1
(dp12
g3
I22
sg4
I16
sg5
I8
sg10
I18
sg7
I3
sg8
I6
sg9
I11
sg6
I12
sS'$end'
p13
I0
ssI2
(dp14
g3
I-47
sg4
I-47
sg5
I-47
sg6
I-47
sg7
I-47
sg8
I-47
sg9
I-47
sg10
I-47
sg11
I-47
ssI3
(dp15
g9
I-29
sg10
I-29
sg4
I-29
sg5
I-29
sS'BRACE_R'
p16
I-29
sS'PAREN_L'
p17
I-29
sg6
I-29
sS'BRACKET_L'
p18
I-29
sg7
I-29
sg8
I-29
sS'BRACKET_R'
p19
I-29
sS'APOSTROPHE'
p20
I27
sS'PAREN_R'
p21
I-29
sg3
I-29
sS'TILDE'
p22
I-29
sS'CARAT_R'
p23
I-29
sS'COMMA'
p24
I25
sg11
I-29
ssI4
(dp25
g3
I-40
sg10
I-40
sg4
I-40
sg5
I-40
sg16
I-40
sg17
I-40
sg6
I-40
sg18
I-40
sg7
I-40
sS'PIPE'
p26
I-40
sg19
I-40
sg21
I-40
sg9
I-40
sg22
I-40
sg11
I-40
ssI5
(dp27
g3
I22
sg10
I-26
sg4
I-26
sg5
I-26
sg16
I-26
sg17
I-26
sg6
I-26
sg18
I-26
sg7
I-26
sg26
I-26
sg19
I-26
sg21
I-26
sg9
I-26
sg22
I-26
sg11
I-26
ssI6
(dp28
S'FRACTION'
p29
I29
ssI7
(dp30
g3
I-10
sg4
I-10
sg5
I-10
sg16
I-10
sg6
I-10
sg7
I-10
sg26
I-10
sg9
I-10
sg10
I-10
sg11
I-10
ssI8
(dp31
g3
I-18
sg10
I-18
sg4
I-18
sg5
I-18
sg16
I-18
sg17
I-18
sg6
I-18
sg18
I-18
sg7
I-18
sg8
I-18
sg19
I-18
sg21
I-18
sg9
I-18
sg22
I-18
sS'DOT'
p32
I-18
sg11
I-18
ssI9
(dp33
g3
I-23
sg10
I-23
sg4
I-23
sg5
I-23
sg16
I-23
sg17
I-23
sg6
I-23
sg18
I-23
sg7
I-23
sg8
I-23
sg19
I-23
sg21
I-23
sg9
I-23
sg22
I-23
sg11
I-23
ssI10
(dp34
g3
I-13
sg4
I-13
sg5
I-13
sg16
I-13
sg6
I-13
sg7
I-13
sg26
I-13
sg9
I-13
sg10
I-13
sg11
I-13
ssI11
(dp35
g6
I32
ssI12
(dp36
g3
I-14
sg4
I-14
sg5
I-14
sg16
I-14
sg6
I-14
sg7
I-14
sS'FRACTION'
p37
I33
sg10
I-14
ssI13
(dp38
g3
I-11
sg4
I-11
sg5
I-11
sg16
I-11
sg6
I-11
sg7
I-11
sg26
I-11
sg9
I-11
sg10
I-11
sg11
I-11
ssI14
(dp39
g3
I-21
sg10
I-21
sg4
I-21
sg5
I-21
sg16
I-21
sg17
I-21
sg6
I-21
sg18
I-21
sg7
I-21
sg8
I-21
sg19
I-21
sg21
I-21
sg9
I-21
sg22
I-21
sg11
I-21
ssI15
(dp40
g3
I-28
sg10
I-28
sg4
I-28
sg5
I-28
sg16
I-28
sg17
I-28
sg6
I-28
sg18
I-28
sg7
I-28
sg26
I-28
sg19
I-28
sg21
I-28
sg9
I-28
sg22
I-28
sg11
I-28
ssI16
(dp41
g7
I3
ssI17
(dp42
g3
I-46
sg4
I-46
sg5
I-46
sg6
I-46
sg7
I-46
sg8
I-46
sg9
I-46
sg10
I-46
sg11
I-46
ssI18
(dp43
g3
I22
sg10
I-41
sg4
I-41
sg5
I-41
sg16
I-41
sg17
I-41
sg6
I-41
sg18
I-41
sg7
I-41
sg26
I-41
sg19
I-41
sg21
I-41
sg9
I-41
sg22
I-41
sg11
I-41
ssI19
(dp44
g3
I-12
sg4
I-12
sg5
I-12
sg16
I-12
sg6
I-12
sg7
I-12
sg26
I-12
sg9
I-12
sg10
I-12
sg11
I-12
ssI20
(dp45
g3
I22
sg10
I-5
sg4
I-5
sg5
I-5
sg16
I-5
sg17
I-5
sg6
I-5
sg18
I-5
sg7
I-5
sg8
I-5
sg19
I-5
sg21
I-5
sg9
I-5
sg22
I-5
sg11
I-5
ssI21
(dp46
g3
I-38
sg10
I-38
sg4
I-38
sg5
I-38
sg16
I-38
sg17
I-38
sg6
I-38
sg18
I-38
sg7
I-38
sg8
I-38
sg19
I-38
sg21
I-38
sg9
I-38
sg22
I-38
sg11
I-38
ssI22
(dp47
g3
I-18
sg10
I-18
sg4
I-18
sg5
I-18
sg16
I-18
sg17
I-18
sg6
I-18
sg18
I-18
sg7
I-18
sg8
I-18
sg19
I-18
sg21
I-18
sg9
I-18
sg22
I-18
sg32
I-18
sg11
I-18
ssI23
(dp48
g3
I-22
sg10
I-22
sg4
I-22
sg5
I-22
sg16
I-22
sg17
I-22
sg6
I-22
sg18
I-22
sg7
I-22
sg8
I-22
sg19
I-22
sg21
I-22
sg9
I-22
sg22
I-22
sg11
I-22
ssI24
(dp49
g9
I-30
sg10
I-30
sg4
I-30
sg5
I-30
sg16
I-30
sg17
I-30
sg6
I-30
sg18
I-30
sg7
I-30
sg8
I-30
sg19
I-30
sS'APOSTROPHE'
p50
I41
sg21
I-30
sg3
I-30
sg22
I-30
sg23
I-30
sg11
I-30
ssI25
(dp51
g9
I-8
sg10
I-8
sg4
I-8
sg5
I-8
sg16
I-8
sg17
I-8
sg6
I-8
sg18
I-8
sg7
I-8
sg8
I-8
sg19
I-8
sS'COMMA'
p52
I-8
sg3
I-8
sg22
I-8
sg21
I-8
sg23
I-8
sg11
I-8
ssI26
(dp53
g9
I-31
sg10
I-31
sg4
I-31
sg5
I-31
sg16
I-31
sg17
I-31
sg6
I-31
sg18
I-31
sg7
I-31
sg8
I-31
sg19
I-31
sg21
I-31
sg3
I-31
sg22
I-31
sg23
I-31
sg52
I42
sg11
I-31
ssI27
(dp54
g9
I-1
sg10
I-1
sg4
I-1
sg5
I-1
sg16
I-1
sg17
I-1
sg6
I-1
sg18
I-1
sg7
I-1
sg8
I-1
sg19
I-1
sg21
I-1
sg3
I-1
sg22
I-1
sg50
I-1
sg23
I-1
sg11
I-1
ssI28
(dp55
g3
I-27
sg10
I-27
sg4
I-27
sg5
I-27
sg16
I-27
sg17
I-27
sg6
I-27
sg18
I-27
sg7
I-27
sg26
I-27
sg19
I-27
sg21
I-27
sg9
I-27
sg22
I-27
sg11
I-27
ssI29
(dp56
g3
I-14
sg4
I-14
sg5
I-14
sg6
I-14
sg7
I-14
sg26
I-14
sg9
I-14
sg10
I-14
ssI30
(dp57
g3
I-25
sg10
I-25
sg4
I-25
sg5
I-25
sg16
I-25
sg17
I-25
sg6
I-25
sg18
I-25
sg7
I-25
sg8
I-25
sg19
I-25
sg21
I-25
sg9
I-25
sg22
I-25
sg32
I44
sg11
I-25
ssI31
(dp58
g3
I-49
sg4
I-49
sg5
I-49
sg16
I-49
sg6
I-49
sg7
I-49
sg26
I-49
sg9
I-49
sg10
I-49
sg11
I-49
ssI32
(dp59
g3
I-14
sg4
I-14
sg5
I-14
sg16
I-14
sg6
I-14
sg7
I-14
sg9
I-14
sg10
I-14
ssI33
(dp60
S'BRACE_R'
p61
I45
ssI34
(dp62
g3
I22
sg4
I16
sg5
I8
sg16
I46
sg6
I12
sg7
I3
sg9
I11
sg10
I18
ssI35
(dp63
g23
I49
sg7
I3
ssI36
(dp64
g23
I-32
sg7
I-32
ssI37
(dp65
g3
I-42
sg10
I-42
sg4
I-42
sg5
I-42
sg16
I-42
sg17
I-42
sg6
I-42
sg18
I-42
sg7
I-42
sg26
I-42
sg19
I-42
sg21
I-42
sg9
I-42
sg22
I-42
sg11
I-42
ssI38
(dp66
g3
I-6
sg10
I-6
sg4
I-6
sg5
I-6
sg16
I-6
sg17
I-6
sg6
I-6
sg18
I-6
sg7
I-6
sg8
I-6
sg19
I-6
sg21
I-6
sg9
I-6
sg22
I-6
sg11
I-6
ssI39
(dp67
g3
I-20
sg4
I-20
sg5
I-20
sg16
I-20
sg17
I51
sg6
I-20
sg18
I52
sg7
I-20
sg26
I-20
sg22
I57
sg19
I54
sg21
I55
sg9
I-20
sg10
I-20
sg11
I-20
ssI40
(dp68
g3
I-34
sg10
I-34
sg4
I-34
sg5
I-34
sg16
I-34
sg17
I-34
sg6
I-34
sg18
I-34
sg7
I-34
sg26
I-34
sg19
I-34
sg21
I-34
sg9
I-34
sg22
I-34
sg32
I44
sg11
I-34
ssI41
(dp69
g9
I-2
sg10
I-2
sg4
I-2
sg5
I-2
sg16
I-2
sg17
I-2
sg6
I-2
sg18
I-2
sg7
I-2
sg8
I-2
sg19
I-2
sg21
I-2
sg3
I-2
sg22
I-2
sg50
I-2
sg23
I-2
sg11
I-2
ssI42
(dp70
g9
I-9
sg10
I-9
sg4
I-9
sg5
I-9
sg16
I-9
sg17
I-9
sg6
I-9
sg18
I-9
sg7
I-9
sg8
I-9
sg19
I-9
sg52
I-9
sg3
I-9
sg22
I-9
sg21
I-9
sg23
I-9
sg11
I-9
ssI43
(dp71
g3
I22
sg4
I16
sg5
I8
sg6
I12
sg7
I3
sg26
I59
sg9
I11
sg10
I18
ssI44
(dp72
g3
I-17
sg10
I-17
sg4
I-17
sg5
I-17
sg16
I-17
sg17
I-17
sg6
I-17
sg18
I-17
sg7
I-17
sg8
I-17
sg19
I-17
sg21
I-17
sg9
I-17
sg22
I-17
sg32
I-17
sg11
I-17
ssI45
(dp73
g3
I-19
sg4
I-19
sg5
I-19
sg16
I-19
sg6
I-19
sg7
I-19
sg8
I-19
sg9
I-19
sg10
I-19
sg11
I-19
ssI46
(dp74
g3
I-16
sg4
I-16
sg5
I-16
sg16
I-16
sg6
I-16
sg7
I-16
sg8
I-16
sg9
I-16
sg10
I-16
sg11
I-16
ssI47
(dp75
g3
I-15
sg4
I-15
sg5
I-15
sg16
I-15
sg6
I-15
sg7
I-15
sg26
I-15
sg9
I-15
sg10
I-15
ssI48
(dp76
g23
I-33
sg7
I-33
ssI49
(dp77
g9
I-7
sg10
I-7
sg4
I-7
sg5
I-7
sg16
I-7
sg17
I-7
sg6
I-7
sg18
I-7
sg7
I-7
sg26
I-7
sg19
I-7
sg21
I-7
sg3
I-7
sg22
I-7
sg11
I-7
ssI50
(dp78
g3
I-36
sg10
I-36
sg4
I-36
sg5
I-36
sg16
I-36
sg17
I-36
sg6
I-36
sg18
I-36
sg7
I-36
sg8
I-36
sg19
I-36
sg21
I-36
sg9
I-36
sg22
I-36
sg11
I-36
ssI51
(dp79
g3
I-43
sg10
I-43
sg4
I-43
sg5
I-43
sg16
I-43
sg17
I-43
sg6
I-43
sg18
I-43
sg7
I-43
sg8
I-43
sg19
I-43
sg21
I-43
sg9
I-43
sg22
I-43
sg11
I-43
ssI52
(dp80
g3
I-3
sg10
I-3
sg4
I-3
sg5
I-3
sg16
I-3
sg17
I-3
sg6
I-3
sg18
I-3
sg7
I-3
sg8
I-3
sg19
I-3
sg21
I-3
sg9
I-3
sg22
I-3
sg11
I-3
ssI53
(dp81
g3
I-35
sg10
I-35
sg4
I-35
sg5
I-35
sg16
I-35
sg17
I-35
sg6
I-35
sg18
I-35
sg7
I-35
sg8
I-35
sg19
I-35
sg21
I-35
sg9
I-35
sg22
I-35
sg11
I-35
ssI54
(dp82
g3
I-4
sg10
I-4
sg4
I-4
sg5
I-4
sg16
I-4
sg17
I-4
sg6
I-4
sg18
I-4
sg7
I-4
sg8
I-4
sg19
I-4
sg21
I-4
sg9
I-4
sg22
I-4
sg11
I-4
ssI55
(dp83
g3
I-44
sg10
I-44
sg4
I-44
sg5
I-44
sg16
I-44
sg17
I-44
sg6
I-44
sg18
I-44
sg7
I-44
sg8
I-44
sg19
I-44
sg21
I-44
sg9
I-44
sg22
I-44
sg11
I-44
ssI56
(dp84
g3
I-39
sg10
I-39
sg4
I-39
sg5
I-39
sg16
I-39
sg17
I-39
sg6
I-39
sg18
I-39
sg7
I-39
sg8
I-39
sg19
I-39
sg21
I-39
sg9
I-39
sg22
I-39
sg11
I-39
ssI57
(dp85
g3
I-48
sg10
I-48
sg4
I-48
sg5
I-48
sg16
I-48
sg17
I-48
sg6
I-48
sg18
I-48
sg7
I-48
sg8
I-48
sg19
I-48
sg21
I-48
sg9
I-48
sg22
I-48
sg11
I-48
ssI58
(dp86
g3
I-37
sg10
I-37
sg4
I-37
sg5
I-37
sg16
I-37
sg17
I-37
sg6
I-37
sg18
I-37
sg7
I-37
sg8
I-37
sg19
I-37
sg21
I-37
sg9
I-37
sg22
I-37
sg11
I-37
ssI59
(dp87
g3
I-24
sg4
I-24
sg5
I-24
sg6
I-24
sg7
I-24
sg8
I-24
sg9
I-24
sg10
I-24
sg11
I-24
ss.(dp1
I0
(dp2
S'start'
p3
I1
ssI1
(dp4
S'container'
p5
I7
sS'positive_leaf_duration'
p6
I15
sS'leaf_body'
p7
I21
sS'fixed_duration_container'
p8
I13
sS'measure'
p9
I2
sS'component'
p10
I17
sS'rest_body'
p11
I9
sS'negative_leaf_duration'
p12
I4
sS'tuplet'
p13
I10
sS'pitch'
p14
I5
sS'leaf'
p15
I19
sS'note_body'
p16
I23
sS'chord_pitches'
p17
I20
sS'chord_body'
p18
I14
ssI2
(dp19
sI3
(dp20
S'apostrophes'
p21
I24
sS'commas'
p22
I26
ssI4
(dp23
sI5
(dp24
S'positive_leaf_duration'
p25
I28
ssI6
(dp26
sI7
(dp27
sI8
(dp28
S'dots'
p29
I30
ssI9
(dp30
sI10
(dp31
sI11
(dp32
S'container'
p33
I31
ssI12
(dp34
S'component_list'
p35
I34
ssI13
(dp36
sI14
(dp37
sI15
(dp38
sI16
(dp39
S'pitches'
p40
I35
sS'pitch'
p41
I36
ssI17
(dp42
sI18
(dp43
S'positive_leaf_duration'
p44
I37
ssI19
(dp45
sI20
(dp46
g6
I38
ssI21
(dp47
S'post_events'
p48
I39
ssI22
(dp49
S'dots'
p50
I40
ssI23
(dp51
sI24
(dp52
sI25
(dp53
sI26
(dp54
sI27
(dp55
sI28
(dp56
sI29
(dp57
S'component_list'
p58
I43
ssI30
(dp59
sI31
(dp60
sI32
(dp61
g35
I34
ssI33
(dp62
sI34
(dp63
g5
I7
sg6
I15
sg7
I21
sS'component'
p64
I47
sg11
I9
sg12
I4
sg15
I19
sg13
I10
sg14
I5
sg8
I13
sg16
I23
sg17
I20
sg18
I14
ssI35
(dp65
S'pitch'
p66
I48
ssI36
(dp67
sI37
(dp68
sI38
(dp69
sI39
(dp70
S'slur'
p71
I50
sS'beam'
p72
I53
sS'post_event'
p73
I56
sS'tie'
p74
I58
ssI40
(dp75
sI41
(dp76
sI42
(dp77
sI43
(dp78
g5
I7
sg6
I15
sg7
I21
sg64
I47
sg11
I9
sg12
I4
sg15
I19
sg13
I10
sg14
I5
sg8
I13
sg16
I23
sg17
I20
sg18
I14
ssI44
(dp79
sI45
(dp80
sI46
(dp81
sI47
(dp82
sI48
(dp83
sI49
(dp84
sI50
(dp85
sI51
(dp86
sI52
(dp87
sI53
(dp88
sI54
(dp89
sI55
(dp90
sI56
(dp91
sI57
(dp92
sI58
(dp93
sI59
(dp94
s.(lp1
(S"S' -> start"
p2
S"S'"
p3
I1
NNNtp4
a(S'apostrophes -> APOSTROPHE'
p5
S'apostrophes'
p6
I1
S'p_apostrophes__APOSTROPHE'
p7
S'/Users/josiah/Documents/Projects/abjad/trunk/abjad/tools/rhythmtreetools/ReducedAbjParser/ReducedAbjParser.py'
p8
I226
tp9
a(S'apostrophes -> apostrophes APOSTROPHE'
p10
S'apostrophes'
p11
I2
S'p_apostrophes__apostrophes__APOSTROPHE'
p12
S'/Users/josiah/Documents/Projects/abjad/trunk/abjad/tools/rhythmtreetools/ReducedAbjParser/ReducedAbjParser.py'
p13
I230
tp14
a(S'beam -> BRACKET_L'
p15
S'beam'
p16
I1
S'p_beam__BRACKET_L'
p17
S'/Users/josiah/Documents/Projects/abjad/trunk/abjad/tools/rhythmtreetools/ReducedAbjParser/ReducedAbjParser.py'
p18
I234
tp19
a(S'beam -> BRACKET_R'
p20
S'beam'
p21
I1
S'p_beam__BRACKET_R'
p22
S'/Users/josiah/Documents/Projects/abjad/trunk/abjad/tools/rhythmtreetools/ReducedAbjParser/ReducedAbjParser.py'
p23
I238
tp24
a(S'chord_body -> chord_pitches'
p25
S'chord_body'
p26
I1
S'p_chord_body__chord_pitches'
p27
S'/Users/josiah/Documents/Projects/abjad/trunk/abjad/tools/rhythmtreetools/ReducedAbjParser/ReducedAbjParser.py'
p28
I242
tp29
a(S'chord_body -> chord_pitches positive_leaf_duration'
p30
S'chord_body'
p31
I2
S'p_chord_body__chord_pitches__positive_leaf_duration'
p32
S'/Users/josiah/Documents/Projects/abjad/trunk/abjad/tools/rhythmtreetools/ReducedAbjParser/ReducedAbjParser.py'
p33
I246
tp34
a(S'chord_pitches -> CARAT_L pitches CARAT_R'
p35
S'chord_pitches'
p36
I3
S'p_chord_pitches__CARAT_L__pitches__CARAT_R'
p37
S'/Users/josiah/Documents/Projects/abjad/trunk/abjad/tools/rhythmtreetools/ReducedAbjParser/ReducedAbjParser.py'
p38
I250
tp39
a(S'commas -> COMMA'
p40
S'commas'
p41
I1
S'p_commas__COMMA'
p42
S'/Users/josiah/Documents/Projects/abjad/trunk/abjad/tools/rhythmtreetools/ReducedAbjParser/ReducedAbjParser.py'
p43
I254
tp44
a(S'commas -> commas COMMA'
p45
S'commas'
p46
I2
S'p_commas__commas__commas'
p47
S'/Users/josiah/Documents/Projects/abjad/trunk/abjad/tools/rhythmtreetools/ReducedAbjParser/ReducedAbjParser.py'
p48
I258
tp49
a(S'component -> container'
p50
S'component'
p51
I1
S'p_component__container'
p52
S'/Users/josiah/Documents/Projects/abjad/trunk/abjad/tools/rhythmtreetools/ReducedAbjParser/ReducedAbjParser.py'
p53
I262
tp54
a(S'component -> fixed_duration_container'
p55
S'component'
p56
I1
S'p_component__fixed_duration_container'
p57
S'/Users/josiah/Documents/Projects/abjad/trunk/abjad/tools/rhythmtreetools/ReducedAbjParser/ReducedAbjParser.py'
p58
I266
tp59
a(S'component -> leaf'
p60
S'component'
p61
I1
S'p_component__leaf'
p62
S'/Users/josiah/Documents/Projects/abjad/trunk/abjad/tools/rhythmtreetools/ReducedAbjParser/ReducedAbjParser.py'
p63
I270
tp64
a(S'component -> tuplet'
p65
S'component'
p66
I1
S'p_component__tuplet'
p67
S'/Users/josiah/Documents/Projects/abjad/trunk/abjad/tools/rhythmtreetools/ReducedAbjParser/ReducedAbjParser.py'
p68
I274
tp69
a(S'component_list -> <empty>'
p70
S'component_list'
p71
I0
S'p_component_list__EMPTY'
p72
S'/Users/josiah/Documents/Projects/abjad/trunk/abjad/tools/rhythmtreetools/ReducedAbjParser/ReducedAbjParser.py'
p73
I278
tp74
a(S'component_list -> component_list component'
p75
S'component_list'
p76
I2
S'p_component_list__component_list__component'
p77
S'/Users/josiah/Documents/Projects/abjad/trunk/abjad/tools/rhythmtreetools/ReducedAbjParser/ReducedAbjParser.py'
p78
I282
tp79
a(S'container -> BRACE_L component_list BRACE_R'
p80
S'container'
p81
I3
S'p_container__BRACE_L__component_list__BRACE_R'
p82
S'/Users/josiah/Documents/Projects/abjad/trunk/abjad/tools/rhythmtreetools/ReducedAbjParser/ReducedAbjParser.py'
p83
I286
tp84
a(S'dots -> dots DOT'
p85
S'dots'
p86
I2
S'p_dots__dots__DOT'
p87
S'/Users/josiah/Documents/Projects/abjad/trunk/abjad/tools/rhythmtreetools/ReducedAbjParser/ReducedAbjParser.py'
p88
I292
tp89
a(S'dots -> <empty>'
p90
S'dots'
p91
I0
S'p_dots__EMPTY'
p92
S'/Users/josiah/Documents/Projects/abjad/trunk/abjad/tools/rhythmtreetools/ReducedAbjParser/ReducedAbjParser.py'
p93
I296
tp94
a(S'fixed_duration_container -> BRACE_L FRACTION BRACE_R'
p95
S'fixed_duration_container'
p96
I3
S'p_fixed_duration_container__BRACE_L__FRACTION__BRACE_R'
p97
S'/Users/josiah/Documents/Projects/abjad/trunk/abjad/tools/rhythmtreetools/ReducedAbjParser/ReducedAbjParser.py'
p98
I300
tp99
a(S'leaf -> leaf_body post_events'
p100
S'leaf'
p101
I2
S'p_leaf__leaf_body__post_events'
p102
S'/Users/josiah/Documents/Projects/abjad/trunk/abjad/tools/rhythmtreetools/ReducedAbjParser/ReducedAbjParser.py'
p103
I304
tp104
a(S'leaf_body -> chord_body'
p105
S'leaf_body'
p106
I1
S'p_leaf_body__chord_body'
p107
S'/Users/josiah/Documents/Projects/abjad/trunk/abjad/tools/rhythmtreetools/ReducedAbjParser/ReducedAbjParser.py'
p108
I311
tp109
a(S'leaf_body -> note_body'
p110
S'leaf_body'
p111
I1
S'p_leaf_body__note_body'
p112
S'/Users/josiah/Documents/Projects/abjad/trunk/abjad/tools/rhythmtreetools/ReducedAbjParser/ReducedAbjParser.py'
p113
I315
tp114
a(S'leaf_body -> rest_body'
p115
S'leaf_body'
p116
I1
S'p_leaf_body__rest_body'
p117
S'/Users/josiah/Documents/Projects/abjad/trunk/abjad/tools/rhythmtreetools/ReducedAbjParser/ReducedAbjParser.py'
p118
I319
tp119
a(S'measure -> PIPE FRACTION component_list PIPE'
p120
S'measure'
p121
I4
S'p_measure__PIPE__FRACTION__component_list__PIPE'
p122
S'/Users/josiah/Documents/Projects/abjad/trunk/abjad/tools/rhythmtreetools/ReducedAbjParser/ReducedAbjParser.py'
p123
I323
tp124
a(S'negative_leaf_duration -> INTEGER_N dots'
p125
S'negative_leaf_duration'
p126
I2
S'p_negative_leaf_duration__INTEGER_N__dots'
p127
S'/Users/josiah/Documents/Projects/abjad/trunk/abjad/tools/rhythmtreetools/ReducedAbjParser/ReducedAbjParser.py'
p128
I329
tp129
a(S'note_body -> pitch'
p130
S'note_body'
p131
I1
S'p_note_body__pitch'
p132
S'/Users/josiah/Documents/Projects/abjad/trunk/abjad/tools/rhythmtreetools/ReducedAbjParser/ReducedAbjParser.py'
p133
I337
tp134
a(S'note_body -> pitch positive_leaf_duration'
p135
S'note_body'
p136
I2
S'p_note_body__pitch__positive_leaf_duration'
p137
S'/Users/josiah/Documents/Projects/abjad/trunk/abjad/tools/rhythmtreetools/ReducedAbjParser/ReducedAbjParser.py'
p138
I341
tp139
a(S'note_body -> positive_leaf_duration'
p140
S'note_body'
p141
I1
S'p_note_body__positive_leaf_duration'
p142
S'/Users/josiah/Documents/Projects/abjad/trunk/abjad/tools/rhythmtreetools/ReducedAbjParser/ReducedAbjParser.py'
p143
I345
tp144
a(S'pitch -> PITCHNAME'
p145
S'pitch'
p146
I1
S'p_pitch__PITCHNAME'
p147
S'/Users/josiah/Documents/Projects/abjad/trunk/abjad/tools/rhythmtreetools/ReducedAbjParser/ReducedAbjParser.py'
p148
I349
tp149
a(S'pitch -> PITCHNAME apostrophes'
p150
S'pitch'
p151
I2
S'p_pitch__PITCHNAME__apostrophes'
p152
S'/Users/josiah/Documents/Projects/abjad/trunk/abjad/tools/rhythmtreetools/ReducedAbjParser/ReducedAbjParser.py'
p153
I353
tp154
a(S'pitch -> PITCHNAME commas'
p155
S'pitch'
p156
I2
S'p_pitch__PITCHNAME__commas'
p157
S'/Users/josiah/Documents/Projects/abjad/trunk/abjad/tools/rhythmtreetools/ReducedAbjParser/ReducedAbjParser.py'
p158
I357
tp159
a(S'pitches -> pitch'
p160
S'pitches'
p161
I1
S'p_pitches__pitch'
p162
S'/Users/josiah/Documents/Projects/abjad/trunk/abjad/tools/rhythmtreetools/ReducedAbjParser/ReducedAbjParser.py'
p163
I361
tp164
a(S'pitches -> pitches pitch'
p165
S'pitches'
p166
I2
S'p_pitches__pitches__pitch'
p167
S'/Users/josiah/Documents/Projects/abjad/trunk/abjad/tools/rhythmtreetools/ReducedAbjParser/ReducedAbjParser.py'
p168
I365
tp169
a(S'positive_leaf_duration -> INTEGER_P dots'
p170
S'positive_leaf_duration'
p171
I2
S'p_positive_leaf_duration__INTEGER_P__dots'
p172
S'/Users/josiah/Documents/Projects/abjad/trunk/abjad/tools/rhythmtreetools/ReducedAbjParser/ReducedAbjParser.py'
p173
I369
tp174
a(S'post_event -> beam'
p175
S'post_event'
p176
I1
S'p_post_event__beam'
p177
S'/Users/josiah/Documents/Projects/abjad/trunk/abjad/tools/rhythmtreetools/ReducedAbjParser/ReducedAbjParser.py'
p178
I377
tp179
a(S'post_event -> slur'
p180
S'post_event'
p181
I1
S'p_post_event__slur'
p182
S'/Users/josiah/Documents/Projects/abjad/trunk/abjad/tools/rhythmtreetools/ReducedAbjParser/ReducedAbjParser.py'
p183
I381
tp184
a(S'post_event -> tie'
p185
S'post_event'
p186
I1
S'p_post_event__tie'
p187
S'/Users/josiah/Documents/Projects/abjad/trunk/abjad/tools/rhythmtreetools/ReducedAbjParser/ReducedAbjParser.py'
p188
I385
tp189
a(S'post_events -> <empty>'
p190
S'post_events'
p191
I0
S'p_post_events__EMPTY'
p192
S'/Users/josiah/Documents/Projects/abjad/trunk/abjad/tools/rhythmtreetools/ReducedAbjParser/ReducedAbjParser.py'
p193
I389
tp194
a(S'post_events -> post_events post_event'
p195
S'post_events'
p196
I2
S'p_post_events__post_events__post_event'
p197
S'/Users/josiah/Documents/Projects/abjad/trunk/abjad/tools/rhythmtreetools/ReducedAbjParser/ReducedAbjParser.py'
p198
I393
tp199
a(S'rest_body -> negative_leaf_duration'
p200
S'rest_body'
p201
I1
S'p_rest_body__negative_leaf_duration'
p202
S'/Users/josiah/Documents/Projects/abjad/trunk/abjad/tools/rhythmtreetools/ReducedAbjParser/ReducedAbjParser.py'
p203
I402
tp204
a(S'rest_body -> RESTNAME'
p205
S'rest_body'
p206
I1
S'p_rest_body__RESTNAME'
p207
S'/Users/josiah/Documents/Projects/abjad/trunk/abjad/tools/rhythmtreetools/ReducedAbjParser/ReducedAbjParser.py'
p208
I406
tp209
a(S'rest_body -> RESTNAME positive_leaf_duration'
p210
S'rest_body'
p211
I2
S'p_rest_body__RESTNAME__positive_leaf_duration'
p212
S'/Users/josiah/Documents/Projects/abjad/trunk/abjad/tools/rhythmtreetools/ReducedAbjParser/ReducedAbjParser.py'
p213
I410
tp214
a(S'slur -> PAREN_L'
p215
S'slur'
p216
I1
S'p_slur__PAREN_L'
p217
S'/Users/josiah/Documents/Projects/abjad/trunk/abjad/tools/rhythmtreetools/ReducedAbjParser/ReducedAbjParser.py'
p218
I414
tp219
a(S'slur -> PAREN_R'
p220
S'slur'
p221
I1
S'p_slur__PAREN_R'
p222
S'/Users/josiah/Documents/Projects/abjad/trunk/abjad/tools/rhythmtreetools/ReducedAbjParser/ReducedAbjParser.py'
p223
I418
tp224
a(S'start -> <empty>'
p225
S'start'
p226
I0
S'p_start__EMPTY'
p227
S'/Users/josiah/Documents/Projects/abjad/trunk/abjad/tools/rhythmtreetools/ReducedAbjParser/ReducedAbjParser.py'
p228
I422
tp229
a(S'start -> start component'
p230
S'start'
p231
I2
S'p_start__start__component'
p232
S'/Users/josiah/Documents/Projects/abjad/trunk/abjad/tools/rhythmtreetools/ReducedAbjParser/ReducedAbjParser.py'
p233
I426
tp234
a(S'start -> start measure'
p235
S'start'
p236
I2
S'p_start__start__measure'
p237
S'/Users/josiah/Documents/Projects/abjad/trunk/abjad/tools/rhythmtreetools/ReducedAbjParser/ReducedAbjParser.py'
p238
I430
tp239
a(S'tie -> TILDE'
p240
S'tie'
p241
I1
S'p_tie__TILDE'
p242
S'/Users/josiah/Documents/Projects/abjad/trunk/abjad/tools/rhythmtreetools/ReducedAbjParser/ReducedAbjParser.py'
p243
I434
tp244
a(S'tuplet -> FRACTION container'
p245
S'tuplet'
p246
I2
S'p_tuplet__FRACTION__container'
p247
S'/Users/josiah/Documents/Projects/abjad/trunk/abjad/tools/rhythmtreetools/ReducedAbjParser/ReducedAbjParser.py'
p248
I438
tp249
a.