S'3.2'
p1
.S'LALR'
p1
.S'\xaf\xaf\xd9\x03\xf4~B\xa4|D\xd7\xc6\x94d\x93\x83'
p1
.(dp1
I0
(dp2
S'LPAREN'
p3
I2
ssI1
(dp4
S'$end'
p5
I0
ssI2
(dp6
S'INTEGER'
p7
I3
ssI3
(dp8
S'LPAREN'
p9
I5
ssI4
(dp10
S'RPAREN'
p11
I6
ssI5
(dp12
S'INTEGER'
p13
I10
sg3
I2
ssI6
(dp14
g13
I-1
sS'RPAREN'
p15
I-1
sg3
I-1
sS'$end'
p16
I-1
ssI7
(dp17
g13
I-6
sg15
I-6
sg3
I-6
ssI8
(dp18
g13
I-3
sg15
I-3
sg3
I-3
ssI9
(dp19
g13
I10
sg15
I12
sg3
I2
ssI10
(dp20
g13
I-5
sg15
I-5
sg3
I-5
ssI11
(dp21
g13
I-4
sg15
I-4
sg3
I-4
ssI12
(dp22
g11
I-2
ss.(dp1
I0
(dp2
S'node'
p3
I1
ssI1
(dp4
sI2
(dp5
sI3
(dp6
S'node_list_closed'
p7
I4
ssI4
(dp8
sI5
(dp9
S'node'
p10
I7
sS'node_list_item'
p11
I8
sS'node_list'
p12
I9
ssI6
(dp13
sI7
(dp14
sI8
(dp15
sI9
(dp16
g10
I7
sS'node_list_item'
p17
I11
ssI10
(dp18
sI11
(dp19
sI12
(dp20
s.(lp1
(S"S' -> node"
p2
S"S'"
p3
I1
NNNtp4
a(S'node -> LPAREN INTEGER node_list_closed RPAREN'
p5
S'node'
p6
I4
S'p_node__LPAREN__INTEGER__node_list_closed__RPAREN'
p7
S'/home/josiah/Documents/Projects/abjad/abjad/tools/rhythmtreetools/_RTMParser/_RTMParser.py'
p8
I85
tp9
a(S'node_list_closed -> LPAREN node_list RPAREN'
p10
S'node_list_closed'
p11
I3
S'p_node_list_closed__LPAREN__node_list__RPAREN'
p12
S'/home/josiah/Documents/Projects/abjad/abjad/tools/rhythmtreetools/_RTMParser/_RTMParser.py'
p13
I89
tp14
a(S'node_list -> node_list_item'
p15
S'node_list'
p16
I1
S'p_node_list__node_list_item'
p17
S'/home/josiah/Documents/Projects/abjad/abjad/tools/rhythmtreetools/_RTMParser/_RTMParser.py'
p18
I93
tp19
a(S'node_list -> node_list node_list_item'
p20
S'node_list'
p21
I2
S'p_node_list__node_list__node_list_item'
p22
S'/home/josiah/Documents/Projects/abjad/abjad/tools/rhythmtreetools/_RTMParser/_RTMParser.py'
p23
I97
tp24
a(S'node_list_item -> INTEGER'
p25
S'node_list_item'
p26
I1
S'p_node_list_item__INTEGER'
p27
S'/home/josiah/Documents/Projects/abjad/abjad/tools/rhythmtreetools/_RTMParser/_RTMParser.py'
p28
I101
tp29
a(S'node_list_item -> node'
p30
S'node_list_item'
p31
I1
S'p_node_list_item__node'
p32
S'/home/josiah/Documents/Projects/abjad/abjad/tools/rhythmtreetools/_RTMParser/_RTMParser.py'
p33
I105
tp34
a.