S'3.2'
p1
.S'LALR'
p1
.S'\xe0\x7f\tK\xf9\xb2?i\xfe\x96\xd4Q\xf2\x9b5\x06'
p1
.(dp1
I0
(dp2
S'PAREN_L'
p3
I-26
sS'PITCHNAME'
p4
I-26
sS'PIPE'
p5
I-26
sS'FRACTION'
p6
I-26
sS'BRACE_L'
p7
I-26
sS'INTEGER'
p8
I-26
sS'$end'
p9
I-26
ssI1
(dp10
g3
I15
sg4
I3
sg5
I6
sg6
I8
sg7
I9
sg8
I12
sS'$end'
p11
I0
ssI2
(dp12
g3
I-28
sg4
I-28
sg5
I-28
sg6
I-28
sg7
I-28
sg8
I-28
sg9
I-28
ssI3
(dp13
g8
I-20
sS'COMMA'
p14
I18
sS'APOSTROPHE'
p15
I20
ssI4
(dp16
g8
I12
ssI5
(dp17
S'BRACE_R'
p18
I-5
sg3
I-5
sg4
I-5
sg5
I-5
sg6
I-5
sg7
I-5
sg8
I-5
sg9
I-5
ssI6
(dp19
S'FRACTION'
p20
I22
ssI7
(dp21
g18
I-8
sg3
I-8
sg4
I-8
sg5
I-8
sg6
I-8
sg7
I-8
sg8
I-8
sg9
I-8
ssI8
(dp22
g7
I9
ssI9
(dp23
g18
I-9
sg3
I-9
sg4
I-9
sg6
I-9
sg7
I-9
sg8
I-9
ssI10
(dp24
g18
I-6
sg3
I-6
sg4
I-6
sg5
I-6
sg6
I-6
sg7
I-6
sg8
I-6
sg9
I-6
ssI11
(dp25
g3
I-27
sg4
I-27
sg5
I-27
sg6
I-27
sg7
I-27
sg8
I-27
sg9
I-27
ssI12
(dp26
g18
I-13
sg3
I-13
sS'TILDE'
p27
I-13
sg4
I-13
sg5
I-13
sg6
I-13
sg7
I-13
sg8
I-13
sS'DOT'
p28
I-13
sg9
I-13
ssI13
(dp29
g18
I-14
sg3
I-14
sg4
I-14
sg5
I-14
sg6
I-14
sg7
I-14
sg8
I-14
sg9
I-14
ssI14
(dp30
g18
I-7
sg3
I-7
sg4
I-7
sg5
I-7
sg6
I-7
sg7
I-7
sg8
I-7
sg9
I-7
ssI15
(dp31
S'INTEGER'
p32
I26
ssI16
(dp33
g18
I-24
sg3
I-24
sg27
I-24
sg4
I-24
sg5
I-24
sg6
I-24
sg7
I-24
sg8
I-24
sg9
I-24
ssI17
(dp34
g8
I-21
sS'APOSTROPHE'
p35
I28
ssI18
(dp36
g8
I-3
sS'COMMA'
p37
I-3
ssI19
(dp38
g8
I-22
sg37
I29
ssI20
(dp39
g35
I-1
sg8
I-1
ssI21
(dp40
g18
I-24
sg3
I-24
sg27
I-24
sg4
I-24
sg5
I-24
sg6
I-24
sg7
I-24
sg8
I-24
sg9
I-24
ssI22
(dp41
g3
I-9
sg4
I-9
sS'PIPE'
p42
I-9
sg6
I-9
sg7
I-9
sg8
I-9
ssI23
(dp43
g18
I-30
sg3
I-30
sg4
I-30
sg42
I-30
sg6
I-30
sg7
I-30
sg8
I-30
sg9
I-30
ssI24
(dp44
g18
I32
sg3
I15
sg4
I3
sg6
I8
sg7
I9
sg8
I12
ssI25
(dp45
g18
I-17
sg3
I-17
sg27
I-17
sg4
I-17
sg5
I-17
sg6
I-17
sg7
I-17
sg8
I-17
sg28
I34
sg9
I-17
ssI26
(dp46
S'INTEGER'
p47
I35
ssI27
(dp48
g18
I-15
sg3
I-15
sg27
I37
sg4
I-15
sg5
I-15
sg6
I-15
sg7
I-15
sg8
I-15
sg9
I-15
ssI28
(dp49
g35
I-2
sg8
I-2
ssI29
(dp50
g8
I-4
sg37
I-4
ssI30
(dp51
g18
I-16
sg3
I-16
sg27
I37
sg4
I-16
sg5
I-16
sg6
I-16
sg7
I-16
sg8
I-16
sg9
I-16
ssI31
(dp52
g3
I15
sg4
I3
sg42
I39
sg6
I8
sg7
I9
sg8
I12
ssI32
(dp53
g18
I-11
sg3
I-11
sg4
I-11
sg5
I-11
sg6
I-11
sg7
I-11
sg8
I-11
sg9
I-11
ssI33
(dp54
g18
I-10
sg3
I-10
sg4
I-10
sg42
I-10
sg6
I-10
sg7
I-10
sg8
I-10
ssI34
(dp55
g18
I-12
sg3
I-12
sg27
I-12
sg4
I-12
sg5
I-12
sg6
I-12
sg7
I-12
sg8
I-12
sg28
I-12
sg9
I-12
ssI35
(dp56
S'PAREN_R'
p57
I40
ssI36
(dp58
g18
I-23
sg3
I-23
sg27
I-23
sg4
I-23
sg5
I-23
sg6
I-23
sg7
I-23
sg8
I-23
sg9
I-23
ssI37
(dp59
g18
I-29
sg3
I-29
sg27
I-29
sg4
I-29
sg5
I-29
sg6
I-29
sg7
I-29
sg8
I-29
sg9
I-29
ssI38
(dp60
g18
I-25
sg3
I-25
sg27
I-25
sg4
I-25
sg5
I-25
sg6
I-25
sg7
I-25
sg8
I-25
sg9
I-25
ssI39
(dp61
g3
I-18
sg4
I-18
sg5
I-18
sg6
I-18
sg7
I-18
sg8
I-18
sg9
I-18
ssI40
(dp62
g18
I-19
sg3
I-19
sg4
I-19
sg5
I-19
sg6
I-19
sg7
I-19
sg8
I-19
sg9
I-19
ss.(dp1
I0
(dp2
S'start'
p3
I1
ssI1
(dp4
S'leaf'
p5
I14
sS'fixed_duration_container'
p6
I10
sS'pitch'
p7
I4
sS'component'
p8
I11
sS'tuplet'
p9
I7
sS'measure'
p10
I2
sS'pair'
p11
I13
sS'container'
p12
I5
sS'leaf_duration'
p13
I16
ssI2
(dp14
sI3
(dp15
S'apostrophes'
p16
I17
sS'commas'
p17
I19
ssI4
(dp18
S'leaf_duration'
p19
I21
ssI5
(dp20
sI6
(dp21
sI7
(dp22
sI8
(dp23
S'container'
p24
I23
ssI9
(dp25
S'component_list'
p26
I24
ssI10
(dp27
sI11
(dp28
sI12
(dp29
S'dots'
p30
I25
ssI13
(dp31
sI14
(dp32
sI15
(dp33
sI16
(dp34
S'post_events'
p35
I27
ssI17
(dp36
sI18
(dp37
sI19
(dp38
sI20
(dp39
sI21
(dp40
S'post_events'
p41
I30
ssI22
(dp42
S'component_list'
p43
I31
ssI23
(dp44
sI24
(dp45
g12
I5
sS'component'
p46
I33
sg5
I14
sg9
I7
sg7
I4
sg11
I13
sg6
I10
sg13
I16
ssI25
(dp47
sI26
(dp48
sI27
(dp49
S'tie'
p50
I36
sS'post_event'
p51
I38
ssI28
(dp52
sI29
(dp53
sI30
(dp54
g50
I36
sg51
I38
ssI31
(dp55
g12
I5
sg46
I33
sg5
I14
sg9
I7
sg7
I4
sg11
I13
sg6
I10
sg13
I16
ssI32
(dp56
sI33
(dp57
sI34
(dp58
sI35
(dp59
sI36
(dp60
sI37
(dp61
sI38
(dp62
sI39
(dp63
sI40
(dp64
s.(lp1
(S"S' -> start"
p2
S"S'"
p3
I1
NNNtp4
a(S'apostrophes -> APOSTROPHE'
p5
S'apostrophes'
p6
I1
S'p_apostrophes__APOSTROPHE'
p7
S'/home/josiah/Documents/Projects/abjad/trunk/abjad/tools/rhythmtreetools/ReducedAbjParser/ReducedAbjParser.py'
p8
I69
tp9
a(S'apostrophes -> apostrophes APOSTROPHE'
p10
S'apostrophes'
p11
I2
S'p_apostrophes__apostrophes__APOSTROPHE'
p12
S'/home/josiah/Documents/Projects/abjad/trunk/abjad/tools/rhythmtreetools/ReducedAbjParser/ReducedAbjParser.py'
p13
I73
tp14
a(S'commas -> COMMA'
p15
S'commas'
p16
I1
S'p_commas__COMMA'
p17
S'/home/josiah/Documents/Projects/abjad/trunk/abjad/tools/rhythmtreetools/ReducedAbjParser/ReducedAbjParser.py'
p18
I77
tp19
a(S'commas -> commas COMMA'
p20
S'commas'
p21
I2
S'p_commas__commas__commas'
p22
S'/home/josiah/Documents/Projects/abjad/trunk/abjad/tools/rhythmtreetools/ReducedAbjParser/ReducedAbjParser.py'
p23
I81
tp24
a(S'component -> container'
p25
S'component'
p26
I1
S'p_component__container'
p27
S'/home/josiah/Documents/Projects/abjad/trunk/abjad/tools/rhythmtreetools/ReducedAbjParser/ReducedAbjParser.py'
p28
I85
tp29
a(S'component -> fixed_duration_container'
p30
S'component'
p31
I1
S'p_component__fixed_duration_container'
p32
S'/home/josiah/Documents/Projects/abjad/trunk/abjad/tools/rhythmtreetools/ReducedAbjParser/ReducedAbjParser.py'
p33
I89
tp34
a(S'component -> leaf'
p35
S'component'
p36
I1
S'p_component__leaf'
p37
S'/home/josiah/Documents/Projects/abjad/trunk/abjad/tools/rhythmtreetools/ReducedAbjParser/ReducedAbjParser.py'
p38
I93
tp39
a(S'component -> tuplet'
p40
S'component'
p41
I1
S'p_component__tuplet'
p42
S'/home/josiah/Documents/Projects/abjad/trunk/abjad/tools/rhythmtreetools/ReducedAbjParser/ReducedAbjParser.py'
p43
I97
tp44
a(S'component_list -> <empty>'
p45
S'component_list'
p46
I0
S'p_component_list__EMPTY'
p47
S'/home/josiah/Documents/Projects/abjad/trunk/abjad/tools/rhythmtreetools/ReducedAbjParser/ReducedAbjParser.py'
p48
I101
tp49
a(S'component_list -> component_list component'
p50
S'component_list'
p51
I2
S'p_component_list__component_list__component'
p52
S'/home/josiah/Documents/Projects/abjad/trunk/abjad/tools/rhythmtreetools/ReducedAbjParser/ReducedAbjParser.py'
p53
I105
tp54
a(S'container -> BRACE_L component_list BRACE_R'
p55
S'container'
p56
I3
S'p_container__BRACE_L__component_list__BRACE_R'
p57
S'/home/josiah/Documents/Projects/abjad/trunk/abjad/tools/rhythmtreetools/ReducedAbjParser/ReducedAbjParser.py'
p58
I109
tp59
a(S'dots -> dots DOT'
p60
S'dots'
p61
I2
S'p_dots__dots__DOT'
p62
S'/home/josiah/Documents/Projects/abjad/trunk/abjad/tools/rhythmtreetools/ReducedAbjParser/ReducedAbjParser.py'
p63
I115
tp64
a(S'dots -> <empty>'
p65
S'dots'
p66
I0
S'p_dots__EMPTY'
p67
S'/home/josiah/Documents/Projects/abjad/trunk/abjad/tools/rhythmtreetools/ReducedAbjParser/ReducedAbjParser.py'
p68
I119
tp69
a(S'fixed_duration_container -> pair'
p70
S'fixed_duration_container'
p71
I1
S'p_fixed_duration_container__pair'
p72
S'/home/josiah/Documents/Projects/abjad/trunk/abjad/tools/rhythmtreetools/ReducedAbjParser/ReducedAbjParser.py'
p73
I123
tp74
a(S'leaf -> leaf_duration post_events'
p75
S'leaf'
p76
I2
S'p_leaf__leaf_duration__post_events'
p77
S'/home/josiah/Documents/Projects/abjad/trunk/abjad/tools/rhythmtreetools/ReducedAbjParser/ReducedAbjParser.py'
p78
I127
tp79
a(S'leaf -> pitch leaf_duration post_events'
p80
S'leaf'
p81
I3
S'p_leaf__pitch__leaf_duration__post_events'
p82
S'/home/josiah/Documents/Projects/abjad/trunk/abjad/tools/rhythmtreetools/ReducedAbjParser/ReducedAbjParser.py'
p83
I138
tp84
a(S'leaf_duration -> INTEGER dots'
p85
S'leaf_duration'
p86
I2
S'p_leaf_duration__INTEGER__dots'
p87
S'/home/josiah/Documents/Projects/abjad/trunk/abjad/tools/rhythmtreetools/ReducedAbjParser/ReducedAbjParser.py'
p88
I147
tp89
a(S'measure -> PIPE FRACTION component_list PIPE'
p90
S'measure'
p91
I4
S'p_measure__PIPE__FRACTION__component_list__PIPE'
p92
S'/home/josiah/Documents/Projects/abjad/trunk/abjad/tools/rhythmtreetools/ReducedAbjParser/ReducedAbjParser.py'
p93
I156
tp94
a(S'pair -> PAREN_L INTEGER INTEGER PAREN_R'
p95
S'pair'
p96
I4
S'p_pair__PAREN_L__INTEGER__INTEGER__PAREN_R'
p97
S'/home/josiah/Documents/Projects/abjad/trunk/abjad/tools/rhythmtreetools/ReducedAbjParser/ReducedAbjParser.py'
p98
I162
tp99
a(S'pitch -> PITCHNAME'
p100
S'pitch'
p101
I1
S'p_pitch__PITCHNAME'
p102
S'/home/josiah/Documents/Projects/abjad/trunk/abjad/tools/rhythmtreetools/ReducedAbjParser/ReducedAbjParser.py'
p103
I166
tp104
a(S'pitch -> PITCHNAME apostrophes'
p105
S'pitch'
p106
I2
S'p_pitch__PITCHNAME__apostrophes'
p107
S'/home/josiah/Documents/Projects/abjad/trunk/abjad/tools/rhythmtreetools/ReducedAbjParser/ReducedAbjParser.py'
p108
I170
tp109
a(S'pitch -> PITCHNAME commas'
p110
S'pitch'
p111
I2
S'p_pitch__PITCHNAME__commas'
p112
S'/home/josiah/Documents/Projects/abjad/trunk/abjad/tools/rhythmtreetools/ReducedAbjParser/ReducedAbjParser.py'
p113
I174
tp114
a(S'post_event -> tie'
p115
S'post_event'
p116
I1
S'p_post_event__tie'
p117
S'/home/josiah/Documents/Projects/abjad/trunk/abjad/tools/rhythmtreetools/ReducedAbjParser/ReducedAbjParser.py'
p118
I178
tp119
a(S'post_events -> <empty>'
p120
S'post_events'
p121
I0
S'p_post_events__EMPTY'
p122
S'/home/josiah/Documents/Projects/abjad/trunk/abjad/tools/rhythmtreetools/ReducedAbjParser/ReducedAbjParser.py'
p123
I182
tp124
a(S'post_events -> post_events post_event'
p125
S'post_events'
p126
I2
S'p_post_events__post_events__post_event'
p127
S'/home/josiah/Documents/Projects/abjad/trunk/abjad/tools/rhythmtreetools/ReducedAbjParser/ReducedAbjParser.py'
p128
I186
tp129
a(S'start -> <empty>'
p130
S'start'
p131
I0
S'p_start__EMPTY'
p132
S'/home/josiah/Documents/Projects/abjad/trunk/abjad/tools/rhythmtreetools/ReducedAbjParser/ReducedAbjParser.py'
p133
I190
tp134
a(S'start -> start component'
p135
S'start'
p136
I2
S'p_start__start__component'
p137
S'/home/josiah/Documents/Projects/abjad/trunk/abjad/tools/rhythmtreetools/ReducedAbjParser/ReducedAbjParser.py'
p138
I194
tp139
a(S'start -> start measure'
p140
S'start'
p141
I2
S'p_start__start__measure'
p142
S'/home/josiah/Documents/Projects/abjad/trunk/abjad/tools/rhythmtreetools/ReducedAbjParser/ReducedAbjParser.py'
p143
I198
tp144
a(S'tie -> TILDE'
p145
S'tie'
p146
I1
S'p_tie__TILDE'
p147
S'/home/josiah/Documents/Projects/abjad/trunk/abjad/tools/rhythmtreetools/ReducedAbjParser/ReducedAbjParser.py'
p148
I202
tp149
a(S'tuplet -> FRACTION container'
p150
S'tuplet'
p151
I2
S'p_tuplet__FRACTION__container'
p152
S'/home/josiah/Documents/Projects/abjad/trunk/abjad/tools/rhythmtreetools/ReducedAbjParser/ReducedAbjParser.py'
p153
I206
tp154
a.