S'3.2'
p1
.S'LALR'
p1
.S"_bV\x07FC\x99G\x01'9,\xeb\xa3\xb1\xb2"
p1
.(dp1
I0
(dp2
S'INTEGER_P'
p3
I-40
sS'CARAT_L'
p4
I-40
sS'INTEGER_N'
p5
I-40
sS'PAREN_L'
p6
I-40
sS'BRACE_L'
p7
I-40
sS'PITCHNAME'
p8
I-40
sS'PIPE'
p9
I-40
sS'FRACTION'
p10
I-40
sS'RESTNAME'
p11
I-40
sS'$end'
p12
I-40
ssI1
(dp13
g3
I11
sg4
I16
sg5
I8
sg6
I24
sg11
I18
sg8
I3
sg9
I6
sg10
I15
sg7
I12
sS'$end'
p14
I0
ssI2
(dp15
g3
I11
sg4
I-24
sg5
I-24
sS'BRACE_R'
p16
I-24
sg6
I-24
sg11
I-24
sg8
I-24
sg9
I-24
sS'TILDE'
p17
I-24
sg10
I-24
sg7
I-24
sg12
I-24
ssI3
(dp18
g3
I-28
sg11
I-28
sg4
I-28
sg5
I-28
sg16
I-28
sg6
I-28
sg17
I-28
sg8
I-28
sS'PIPE'
p19
I-28
sS'APOSTROPHE'
p20
I30
sS'COMMA'
p21
I28
sg10
I-28
sg7
I-28
sS'CARAT_R'
p22
I-28
sg12
I-28
ssI4
(dp23
g3
I-37
sg4
I-37
sg5
I-37
sg16
I-37
sg6
I-37
sg11
I-37
sg8
I-37
sg9
I-37
sg17
I-37
sg10
I-37
sg7
I-37
sg12
I-37
ssI5
(dp24
g3
I-42
sg4
I-42
sg5
I-42
sg6
I-42
sg7
I-42
sg8
I-42
sg9
I-42
sg10
I-42
sg11
I-42
sg12
I-42
ssI6
(dp25
S'FRACTION'
p26
I31
ssI7
(dp27
g3
I-8
sg4
I-8
sg5
I-8
sg16
I-8
sg6
I-8
sg7
I-8
sg8
I-8
sg9
I-8
sg10
I-8
sg11
I-8
sg12
I-8
ssI8
(dp28
g3
I-16
sg11
I-16
sg4
I-16
sg5
I-16
sg16
I-16
sg6
I-16
sg17
I-16
sg8
I-16
sg9
I-16
sg10
I-16
sg7
I-16
sS'DOT'
p29
I-16
sg12
I-16
ssI9
(dp30
g3
I-21
sg4
I-21
sg5
I-21
sg16
I-21
sg6
I-21
sg11
I-21
sg8
I-21
sg19
I-21
sg17
I-21
sg10
I-21
sg7
I-21
sg12
I-21
ssI10
(dp31
g3
I-11
sg4
I-11
sg5
I-11
sg16
I-11
sg6
I-11
sg7
I-11
sg8
I-11
sg9
I-11
sg10
I-11
sg11
I-11
sg12
I-11
ssI11
(dp32
g3
I-16
sg11
I-16
sg4
I-16
sg5
I-16
sg16
I-16
sg6
I-16
sg17
I-16
sg8
I-16
sg9
I-16
sg10
I-16
sg7
I-16
sg29
I-16
sg12
I-16
ssI12
(dp33
g3
I-12
sg4
I-12
sg5
I-12
sg16
I-12
sg6
I-12
sg7
I-12
sg8
I-12
sg10
I-12
sg11
I-12
ssI13
(dp34
g3
I-9
sg4
I-9
sg5
I-9
sg16
I-9
sg6
I-9
sg7
I-9
sg8
I-9
sg9
I-9
sg10
I-9
sg11
I-9
sg12
I-9
ssI14
(dp35
g3
I-19
sg4
I-19
sg5
I-19
sg16
I-19
sg6
I-19
sg11
I-19
sg8
I-19
sg19
I-19
sg17
I-19
sg10
I-19
sg7
I-19
sg12
I-19
ssI15
(dp36
g7
I12
ssI16
(dp37
g8
I3
ssI17
(dp38
g3
I-41
sg4
I-41
sg5
I-41
sg6
I-41
sg7
I-41
sg8
I-41
sg9
I-41
sg10
I-41
sg11
I-41
sg12
I-41
ssI18
(dp39
g3
I11
sg4
I-38
sg5
I-38
sg16
I-38
sg6
I-38
sg11
I-38
sg8
I-38
sg9
I-38
sg17
I-38
sg10
I-38
sg7
I-38
sg12
I-38
ssI19
(dp40
g3
I-17
sg4
I-17
sg5
I-17
sg16
I-17
sg6
I-17
sg7
I-17
sg8
I-17
sg9
I-17
sg10
I-17
sg11
I-17
sg12
I-17
ssI20
(dp41
g3
I-10
sg4
I-10
sg5
I-10
sg16
I-10
sg6
I-10
sg7
I-10
sg8
I-10
sg9
I-10
sg10
I-10
sg11
I-10
sg12
I-10
ssI21
(dp42
g3
I11
sg4
I-3
sg5
I-3
sg16
I-3
sg6
I-3
sg11
I-3
sg8
I-3
sg19
I-3
sg17
I-3
sg10
I-3
sg7
I-3
sg12
I-3
ssI22
(dp43
g3
I-26
sg4
I-26
sg5
I-26
sg16
I-26
sg6
I-26
sg11
I-26
sg8
I-26
sg9
I-26
sg17
I-26
sg10
I-26
sg7
I-26
sg12
I-26
ssI23
(dp44
g3
I-35
sg4
I-35
sg5
I-35
sg16
I-35
sg6
I-35
sg11
I-35
sg8
I-35
sg9
I-35
sg17
I-35
sg10
I-35
sg7
I-35
sg12
I-35
ssI24
(dp45
S'INTEGER_P'
p46
I41
ssI25
(dp47
g3
I-20
sg4
I-20
sg5
I-20
sg16
I-20
sg6
I-20
sg11
I-20
sg8
I-20
sg19
I-20
sg17
I-20
sg10
I-20
sg7
I-20
sg12
I-20
ssI26
(dp48
g3
I-25
sg4
I-25
sg5
I-25
sg16
I-25
sg6
I-25
sg11
I-25
sg8
I-25
sg9
I-25
sg17
I-25
sg10
I-25
sg7
I-25
sg12
I-25
ssI27
(dp49
g3
I-29
sg11
I-29
sg4
I-29
sg5
I-29
sg16
I-29
sg6
I-29
sg17
I-29
sg8
I-29
sg19
I-29
sS'APOSTROPHE'
p50
I42
sg10
I-29
sg7
I-29
sg22
I-29
sg12
I-29
ssI28
(dp51
g3
I-6
sg11
I-6
sg4
I-6
sg5
I-6
sg16
I-6
sg6
I-6
sg17
I-6
sg8
I-6
sg9
I-6
sS'COMMA'
p52
I-6
sg10
I-6
sg7
I-6
sg22
I-6
sg12
I-6
ssI29
(dp53
g3
I-30
sg11
I-30
sg4
I-30
sg5
I-30
sg16
I-30
sg6
I-30
sg17
I-30
sg8
I-30
sg19
I-30
sg52
I43
sg10
I-30
sg7
I-30
sg22
I-30
sg12
I-30
ssI30
(dp54
g3
I-1
sg11
I-1
sg4
I-1
sg5
I-1
sg16
I-1
sg6
I-1
sg17
I-1
sg8
I-1
sg9
I-1
sg10
I-1
sg7
I-1
sg50
I-1
sg22
I-1
sg12
I-1
ssI31
(dp55
g3
I-12
sg4
I-12
sg5
I-12
sg6
I-12
sg7
I-12
sg8
I-12
sg19
I-12
sg10
I-12
sg11
I-12
ssI32
(dp56
g3
I-23
sg4
I-23
sg5
I-23
sg16
I-23
sg6
I-23
sg11
I-23
sg8
I-23
sg9
I-23
sg17
I-23
sg10
I-23
sg7
I-23
sg29
I45
sg12
I-23
ssI33
(dp57
g3
I-33
sg4
I-33
sg5
I-33
sg16
I-33
sg6
I-33
sg11
I-33
sg8
I-33
sg19
I-33
sg17
I-33
sg10
I-33
sg7
I-33
sg29
I45
sg12
I-33
ssI34
(dp58
g3
I11
sg4
I16
sg5
I8
sg16
I46
sg6
I24
sg7
I12
sg8
I3
sg10
I15
sg11
I18
ssI35
(dp59
g3
I-44
sg4
I-44
sg5
I-44
sg16
I-44
sg6
I-44
sg7
I-44
sg8
I-44
sg19
I-44
sg10
I-44
sg11
I-44
sg12
I-44
ssI36
(dp60
g22
I49
sg8
I3
ssI37
(dp61
g22
I-31
sg8
I-31
ssI38
(dp62
g3
I-39
sg4
I-39
sg5
I-39
sg16
I-39
sg6
I-39
sg11
I-39
sg8
I-39
sg9
I-39
sg17
I-39
sg10
I-39
sg7
I-39
sg12
I-39
ssI39
(dp63
g3
I-4
sg4
I-4
sg5
I-4
sg16
I-4
sg6
I-4
sg11
I-4
sg8
I-4
sg19
I-4
sg17
I-4
sg10
I-4
sg7
I-4
sg12
I-4
ssI40
(dp64
g3
I-18
sg4
I-18
sg5
I-18
sg16
I-18
sg6
I-18
sg7
I-18
sg8
I-18
sg9
I-18
sg17
I51
sg10
I-18
sg11
I-18
sg12
I-18
ssI41
(dp65
S'INTEGER_P'
p66
I53
ssI42
(dp67
g3
I-2
sg11
I-2
sg4
I-2
sg5
I-2
sg16
I-2
sg6
I-2
sg17
I-2
sg8
I-2
sg9
I-2
sg10
I-2
sg7
I-2
sg50
I-2
sg22
I-2
sg12
I-2
ssI43
(dp68
g3
I-7
sg11
I-7
sg4
I-7
sg5
I-7
sg16
I-7
sg6
I-7
sg17
I-7
sg8
I-7
sg9
I-7
sg52
I-7
sg10
I-7
sg7
I-7
sg22
I-7
sg12
I-7
ssI44
(dp69
g3
I11
sg4
I16
sg5
I8
sg6
I24
sg7
I12
sg8
I3
sg19
I54
sg10
I15
sg11
I18
ssI45
(dp70
g3
I-15
sg11
I-15
sg4
I-15
sg5
I-15
sg16
I-15
sg6
I-15
sg17
I-15
sg8
I-15
sg9
I-15
sg10
I-15
sg7
I-15
sg29
I-15
sg12
I-15
ssI46
(dp71
g3
I-14
sg4
I-14
sg5
I-14
sg16
I-14
sg6
I-14
sg7
I-14
sg8
I-14
sg9
I-14
sg10
I-14
sg11
I-14
sg12
I-14
ssI47
(dp72
g3
I-13
sg4
I-13
sg5
I-13
sg16
I-13
sg6
I-13
sg7
I-13
sg8
I-13
sg19
I-13
sg10
I-13
sg11
I-13
ssI48
(dp73
g22
I-32
sg8
I-32
ssI49
(dp74
g3
I-5
sg11
I-5
sg4
I-5
sg5
I-5
sg16
I-5
sg6
I-5
sg17
I-5
sg8
I-5
sg19
I-5
sg10
I-5
sg7
I-5
sg12
I-5
ssI50
(dp75
g3
I-34
sg4
I-34
sg5
I-34
sg16
I-34
sg6
I-34
sg11
I-34
sg8
I-34
sg9
I-34
sg17
I-34
sg10
I-34
sg7
I-34
sg12
I-34
ssI51
(dp76
g3
I-43
sg4
I-43
sg5
I-43
sg16
I-43
sg6
I-43
sg11
I-43
sg8
I-43
sg9
I-43
sg17
I-43
sg10
I-43
sg7
I-43
sg12
I-43
ssI52
(dp77
g3
I-36
sg4
I-36
sg5
I-36
sg16
I-36
sg6
I-36
sg11
I-36
sg8
I-36
sg9
I-36
sg17
I-36
sg10
I-36
sg7
I-36
sg12
I-36
ssI53
(dp78
S'PAREN_R'
p79
I55
ssI54
(dp80
g3
I-22
sg4
I-22
sg5
I-22
sg6
I-22
sg7
I-22
sg8
I-22
sg9
I-22
sg10
I-22
sg11
I-22
sg12
I-22
ssI55
(dp81
g3
I-27
sg4
I-27
sg5
I-27
sg16
I-27
sg6
I-27
sg7
I-27
sg8
I-27
sg9
I-27
sg10
I-27
sg11
I-27
sg12
I-27
ss.(dp1
I0
(dp2
S'start'
p3
I1
ssI1
(dp4
S'container'
p5
I7
sS'positive_leaf_duration'
p6
I22
sS'leaf_body'
p7
I23
sS'measure'
p8
I5
sS'component'
p9
I17
sS'rest_body'
p10
I9
sS'negative_leaf_duration'
p11
I4
sS'leaf'
p12
I20
sS'tuplet'
p13
I10
sS'pitch'
p14
I2
sS'pair'
p15
I19
sS'fixed_duration_container'
p16
I13
sS'note_body'
p17
I25
sS'chord_pitches'
p18
I21
sS'chord_body'
p19
I14
ssI2
(dp20
S'positive_leaf_duration'
p21
I26
ssI3
(dp22
S'apostrophes'
p23
I27
sS'commas'
p24
I29
ssI4
(dp25
sI5
(dp26
sI6
(dp27
sI7
(dp28
sI8
(dp29
S'dots'
p30
I32
ssI9
(dp31
sI10
(dp32
sI11
(dp33
S'dots'
p34
I33
ssI12
(dp35
S'component_list'
p36
I34
ssI13
(dp37
sI14
(dp38
sI15
(dp39
S'container'
p40
I35
ssI16
(dp41
S'pitches'
p42
I36
sS'pitch'
p43
I37
ssI17
(dp44
sI18
(dp45
S'positive_leaf_duration'
p46
I38
ssI19
(dp47
sI20
(dp48
sI21
(dp49
g6
I39
ssI22
(dp50
sI23
(dp51
S'post_events'
p52
I40
ssI24
(dp53
sI25
(dp54
sI26
(dp55
sI27
(dp56
sI28
(dp57
sI29
(dp58
sI30
(dp59
sI31
(dp60
S'component_list'
p61
I44
ssI32
(dp62
sI33
(dp63
sI34
(dp64
g5
I7
sg6
I22
sg7
I23
sS'component'
p65
I47
sg10
I9
sg11
I4
sg12
I20
sg13
I10
sg14
I2
sg15
I19
sg16
I13
sg17
I25
sg18
I21
sg19
I14
ssI35
(dp66
sI36
(dp67
S'pitch'
p68
I48
ssI37
(dp69
sI38
(dp70
sI39
(dp71
sI40
(dp72
S'tie'
p73
I50
sS'post_event'
p74
I52
ssI41
(dp75
sI42
(dp76
sI43
(dp77
sI44
(dp78
g5
I7
sg6
I22
sg7
I23
sg65
I47
sg10
I9
sg11
I4
sg12
I20
sg13
I10
sg14
I2
sg15
I19
sg16
I13
sg17
I25
sg18
I21
sg19
I14
ssI45
(dp79
sI46
(dp80
sI47
(dp81
sI48
(dp82
sI49
(dp83
sI50
(dp84
sI51
(dp85
sI52
(dp86
sI53
(dp87
sI54
(dp88
sI55
(dp89
s.(lp1
(S"S' -> start"
p2
S"S'"
p3
I1
NNNtp4
a(S'apostrophes -> APOSTROPHE'
p5
S'apostrophes'
p6
I1
S'p_apostrophes__APOSTROPHE'
p7
S'/Users/josiah/Documents/Projects/abjad/trunk/abjad/tools/rhythmtreetools/ReducedAbjParser/ReducedAbjParser.py'
p8
I220
tp9
a(S'apostrophes -> apostrophes APOSTROPHE'
p10
S'apostrophes'
p11
I2
S'p_apostrophes__apostrophes__APOSTROPHE'
p12
S'/Users/josiah/Documents/Projects/abjad/trunk/abjad/tools/rhythmtreetools/ReducedAbjParser/ReducedAbjParser.py'
p13
I224
tp14
a(S'chord_body -> chord_pitches'
p15
S'chord_body'
p16
I1
S'p_chord_body__chord_pitches'
p17
S'/Users/josiah/Documents/Projects/abjad/trunk/abjad/tools/rhythmtreetools/ReducedAbjParser/ReducedAbjParser.py'
p18
I228
tp19
a(S'chord_body -> chord_pitches positive_leaf_duration'
p20
S'chord_body'
p21
I2
S'p_chord_body__chord_pitches__positive_leaf_duration'
p22
S'/Users/josiah/Documents/Projects/abjad/trunk/abjad/tools/rhythmtreetools/ReducedAbjParser/ReducedAbjParser.py'
p23
I232
tp24
a(S'chord_pitches -> CARAT_L pitches CARAT_R'
p25
S'chord_pitches'
p26
I3
S'p_chord_pitches__CARAT_L__pitches__CARAT_R'
p27
S'/Users/josiah/Documents/Projects/abjad/trunk/abjad/tools/rhythmtreetools/ReducedAbjParser/ReducedAbjParser.py'
p28
I236
tp29
a(S'commas -> COMMA'
p30
S'commas'
p31
I1
S'p_commas__COMMA'
p32
S'/Users/josiah/Documents/Projects/abjad/trunk/abjad/tools/rhythmtreetools/ReducedAbjParser/ReducedAbjParser.py'
p33
I240
tp34
a(S'commas -> commas COMMA'
p35
S'commas'
p36
I2
S'p_commas__commas__commas'
p37
S'/Users/josiah/Documents/Projects/abjad/trunk/abjad/tools/rhythmtreetools/ReducedAbjParser/ReducedAbjParser.py'
p38
I244
tp39
a(S'component -> container'
p40
S'component'
p41
I1
S'p_component__container'
p42
S'/Users/josiah/Documents/Projects/abjad/trunk/abjad/tools/rhythmtreetools/ReducedAbjParser/ReducedAbjParser.py'
p43
I248
tp44
a(S'component -> fixed_duration_container'
p45
S'component'
p46
I1
S'p_component__fixed_duration_container'
p47
S'/Users/josiah/Documents/Projects/abjad/trunk/abjad/tools/rhythmtreetools/ReducedAbjParser/ReducedAbjParser.py'
p48
I252
tp49
a(S'component -> leaf'
p50
S'component'
p51
I1
S'p_component__leaf'
p52
S'/Users/josiah/Documents/Projects/abjad/trunk/abjad/tools/rhythmtreetools/ReducedAbjParser/ReducedAbjParser.py'
p53
I256
tp54
a(S'component -> tuplet'
p55
S'component'
p56
I1
S'p_component__tuplet'
p57
S'/Users/josiah/Documents/Projects/abjad/trunk/abjad/tools/rhythmtreetools/ReducedAbjParser/ReducedAbjParser.py'
p58
I260
tp59
a(S'component_list -> <empty>'
p60
S'component_list'
p61
I0
S'p_component_list__EMPTY'
p62
S'/Users/josiah/Documents/Projects/abjad/trunk/abjad/tools/rhythmtreetools/ReducedAbjParser/ReducedAbjParser.py'
p63
I264
tp64
a(S'component_list -> component_list component'
p65
S'component_list'
p66
I2
S'p_component_list__component_list__component'
p67
S'/Users/josiah/Documents/Projects/abjad/trunk/abjad/tools/rhythmtreetools/ReducedAbjParser/ReducedAbjParser.py'
p68
I268
tp69
a(S'container -> BRACE_L component_list BRACE_R'
p70
S'container'
p71
I3
S'p_container__BRACE_L__component_list__BRACE_R'
p72
S'/Users/josiah/Documents/Projects/abjad/trunk/abjad/tools/rhythmtreetools/ReducedAbjParser/ReducedAbjParser.py'
p73
I272
tp74
a(S'dots -> dots DOT'
p75
S'dots'
p76
I2
S'p_dots__dots__DOT'
p77
S'/Users/josiah/Documents/Projects/abjad/trunk/abjad/tools/rhythmtreetools/ReducedAbjParser/ReducedAbjParser.py'
p78
I278
tp79
a(S'dots -> <empty>'
p80
S'dots'
p81
I0
S'p_dots__EMPTY'
p82
S'/Users/josiah/Documents/Projects/abjad/trunk/abjad/tools/rhythmtreetools/ReducedAbjParser/ReducedAbjParser.py'
p83
I282
tp84
a(S'fixed_duration_container -> pair'
p85
S'fixed_duration_container'
p86
I1
S'p_fixed_duration_container__pair'
p87
S'/Users/josiah/Documents/Projects/abjad/trunk/abjad/tools/rhythmtreetools/ReducedAbjParser/ReducedAbjParser.py'
p88
I286
tp89
a(S'leaf -> leaf_body post_events'
p90
S'leaf'
p91
I2
S'p_leaf__leaf_body__post_events'
p92
S'/Users/josiah/Documents/Projects/abjad/trunk/abjad/tools/rhythmtreetools/ReducedAbjParser/ReducedAbjParser.py'
p93
I290
tp94
a(S'leaf_body -> chord_body'
p95
S'leaf_body'
p96
I1
S'p_leaf_body__chord_body'
p97
S'/Users/josiah/Documents/Projects/abjad/trunk/abjad/tools/rhythmtreetools/ReducedAbjParser/ReducedAbjParser.py'
p98
I296
tp99
a(S'leaf_body -> note_body'
p100
S'leaf_body'
p101
I1
S'p_leaf_body__note_body'
p102
S'/Users/josiah/Documents/Projects/abjad/trunk/abjad/tools/rhythmtreetools/ReducedAbjParser/ReducedAbjParser.py'
p103
I300
tp104
a(S'leaf_body -> rest_body'
p105
S'leaf_body'
p106
I1
S'p_leaf_body__rest_body'
p107
S'/Users/josiah/Documents/Projects/abjad/trunk/abjad/tools/rhythmtreetools/ReducedAbjParser/ReducedAbjParser.py'
p108
I304
tp109
a(S'measure -> PIPE FRACTION component_list PIPE'
p110
S'measure'
p111
I4
S'p_measure__PIPE__FRACTION__component_list__PIPE'
p112
S'/Users/josiah/Documents/Projects/abjad/trunk/abjad/tools/rhythmtreetools/ReducedAbjParser/ReducedAbjParser.py'
p113
I308
tp114
a(S'negative_leaf_duration -> INTEGER_N dots'
p115
S'negative_leaf_duration'
p116
I2
S'p_negative_leaf_duration__INTEGER_N__dots'
p117
S'/Users/josiah/Documents/Projects/abjad/trunk/abjad/tools/rhythmtreetools/ReducedAbjParser/ReducedAbjParser.py'
p118
I314
tp119
a(S'note_body -> pitch'
p120
S'note_body'
p121
I1
S'p_note_body__pitch'
p122
S'/Users/josiah/Documents/Projects/abjad/trunk/abjad/tools/rhythmtreetools/ReducedAbjParser/ReducedAbjParser.py'
p123
I322
tp124
a(S'note_body -> pitch positive_leaf_duration'
p125
S'note_body'
p126
I2
S'p_note_body__pitch__positive_leaf_duration'
p127
S'/Users/josiah/Documents/Projects/abjad/trunk/abjad/tools/rhythmtreetools/ReducedAbjParser/ReducedAbjParser.py'
p128
I326
tp129
a(S'note_body -> positive_leaf_duration'
p130
S'note_body'
p131
I1
S'p_note_body__positive_leaf_duration'
p132
S'/Users/josiah/Documents/Projects/abjad/trunk/abjad/tools/rhythmtreetools/ReducedAbjParser/ReducedAbjParser.py'
p133
I330
tp134
a(S'pair -> PAREN_L INTEGER_P INTEGER_P PAREN_R'
p135
S'pair'
p136
I4
S'p_pair__PAREN_L__INTEGER_P__INTEGER_P__PAREN_R'
p137
S'/Users/josiah/Documents/Projects/abjad/trunk/abjad/tools/rhythmtreetools/ReducedAbjParser/ReducedAbjParser.py'
p138
I334
tp139
a(S'pitch -> PITCHNAME'
p140
S'pitch'
p141
I1
S'p_pitch__PITCHNAME'
p142
S'/Users/josiah/Documents/Projects/abjad/trunk/abjad/tools/rhythmtreetools/ReducedAbjParser/ReducedAbjParser.py'
p143
I338
tp144
a(S'pitch -> PITCHNAME apostrophes'
p145
S'pitch'
p146
I2
S'p_pitch__PITCHNAME__apostrophes'
p147
S'/Users/josiah/Documents/Projects/abjad/trunk/abjad/tools/rhythmtreetools/ReducedAbjParser/ReducedAbjParser.py'
p148
I342
tp149
a(S'pitch -> PITCHNAME commas'
p150
S'pitch'
p151
I2
S'p_pitch__PITCHNAME__commas'
p152
S'/Users/josiah/Documents/Projects/abjad/trunk/abjad/tools/rhythmtreetools/ReducedAbjParser/ReducedAbjParser.py'
p153
I346
tp154
a(S'pitches -> pitch'
p155
S'pitches'
p156
I1
S'p_pitches__pitch'
p157
S'/Users/josiah/Documents/Projects/abjad/trunk/abjad/tools/rhythmtreetools/ReducedAbjParser/ReducedAbjParser.py'
p158
I350
tp159
a(S'pitches -> pitches pitch'
p160
S'pitches'
p161
I2
S'p_pitches__pitches__pitch'
p162
S'/Users/josiah/Documents/Projects/abjad/trunk/abjad/tools/rhythmtreetools/ReducedAbjParser/ReducedAbjParser.py'
p163
I354
tp164
a(S'positive_leaf_duration -> INTEGER_P dots'
p165
S'positive_leaf_duration'
p166
I2
S'p_positive_leaf_duration__INTEGER_P__dots'
p167
S'/Users/josiah/Documents/Projects/abjad/trunk/abjad/tools/rhythmtreetools/ReducedAbjParser/ReducedAbjParser.py'
p168
I358
tp169
a(S'post_event -> tie'
p170
S'post_event'
p171
I1
S'p_post_event__tie'
p172
S'/Users/josiah/Documents/Projects/abjad/trunk/abjad/tools/rhythmtreetools/ReducedAbjParser/ReducedAbjParser.py'
p173
I366
tp174
a(S'post_events -> <empty>'
p175
S'post_events'
p176
I0
S'p_post_events__EMPTY'
p177
S'/Users/josiah/Documents/Projects/abjad/trunk/abjad/tools/rhythmtreetools/ReducedAbjParser/ReducedAbjParser.py'
p178
I370
tp179
a(S'post_events -> post_events post_event'
p180
S'post_events'
p181
I2
S'p_post_events__post_events__post_event'
p182
S'/Users/josiah/Documents/Projects/abjad/trunk/abjad/tools/rhythmtreetools/ReducedAbjParser/ReducedAbjParser.py'
p183
I374
tp184
a(S'rest_body -> negative_leaf_duration'
p185
S'rest_body'
p186
I1
S'p_rest_body__negative_leaf_duration'
p187
S'/Users/josiah/Documents/Projects/abjad/trunk/abjad/tools/rhythmtreetools/ReducedAbjParser/ReducedAbjParser.py'
p188
I378
tp189
a(S'rest_body -> RESTNAME'
p190
S'rest_body'
p191
I1
S'p_rest_body__RESTNAME'
p192
S'/Users/josiah/Documents/Projects/abjad/trunk/abjad/tools/rhythmtreetools/ReducedAbjParser/ReducedAbjParser.py'
p193
I382
tp194
a(S'rest_body -> RESTNAME positive_leaf_duration'
p195
S'rest_body'
p196
I2
S'p_rest_body__RESTNAME__positive_leaf_duration'
p197
S'/Users/josiah/Documents/Projects/abjad/trunk/abjad/tools/rhythmtreetools/ReducedAbjParser/ReducedAbjParser.py'
p198
I386
tp199
a(S'start -> <empty>'
p200
S'start'
p201
I0
S'p_start__EMPTY'
p202
S'/Users/josiah/Documents/Projects/abjad/trunk/abjad/tools/rhythmtreetools/ReducedAbjParser/ReducedAbjParser.py'
p203
I390
tp204
a(S'start -> start component'
p205
S'start'
p206
I2
S'p_start__start__component'
p207
S'/Users/josiah/Documents/Projects/abjad/trunk/abjad/tools/rhythmtreetools/ReducedAbjParser/ReducedAbjParser.py'
p208
I394
tp209
a(S'start -> start measure'
p210
S'start'
p211
I2
S'p_start__start__measure'
p212
S'/Users/josiah/Documents/Projects/abjad/trunk/abjad/tools/rhythmtreetools/ReducedAbjParser/ReducedAbjParser.py'
p213
I398
tp214
a(S'tie -> TILDE'
p215
S'tie'
p216
I1
S'p_tie__TILDE'
p217
S'/Users/josiah/Documents/Projects/abjad/trunk/abjad/tools/rhythmtreetools/ReducedAbjParser/ReducedAbjParser.py'
p218
I402
tp219
a(S'tuplet -> FRACTION container'
p220
S'tuplet'
p221
I2
S'p_tuplet__FRACTION__container'
p222
S'/Users/josiah/Documents/Projects/abjad/trunk/abjad/tools/rhythmtreetools/ReducedAbjParser/ReducedAbjParser.py'
p223
I406
tp224
a.